   1              		.cpu cortex-m0
   2              		.fpu softvfp
   3              		.eabi_attribute 20, 1
   4              		.eabi_attribute 21, 1
   5              		.eabi_attribute 23, 3
   6              		.eabi_attribute 24, 1
   7              		.eabi_attribute 25, 1
   8              		.eabi_attribute 26, 1
   9              		.eabi_attribute 30, 2
  10              		.eabi_attribute 34, 0
  11              		.eabi_attribute 18, 4
  12              		.code	16
  13              		.file	"LineDetectionDouble.c"
  14              		.text
  15              	.Ltext0:
  16              		.cfi_sections	.debug_frame
  17              		.global	__aeabi_fmul
  18              		.global	__aeabi_f2iz
  19              		.global	__aeabi_idiv
  20              		.global	__aeabi_i2f
  21              		.global	__aeabi_fcmpgt
  22              		.global	__aeabi_i2d
  23              		.global	__aeabi_dcmpge
  24              		.global	__aeabi_dcmple
  25              		.global	__aeabi_fcmpge
  26              		.global	__aeabi_fcmplt
  27              		.global	__aeabi_fadd
  28              		.global	__aeabi_fsub
  29              		.global	__aeabi_fdiv
  30              		.section	.text.findLine,"ax",%progbits
  31              		.align	2
  32              		.global	findLine
  33              		.code	16
  34              		.thumb_func
  36              	findLine:
  37              	.LFB0:
  38              		.file 1 "../Sources/LineDetectionDouble.c"
   1:../Sources/LineDetectionDouble.c **** /*
   2:../Sources/LineDetectionDouble.c ****  * LineDetectionDouble.c
   3:../Sources/LineDetectionDouble.c ****  *
   4:../Sources/LineDetectionDouble.c ****  *  Created on: Oct 29, 2014
   5:../Sources/LineDetectionDouble.c ****  *  Author: Miroslav Dobrev
   6:../Sources/LineDetectionDouble.c ****  */
   7:../Sources/LineDetectionDouble.c **** 
   8:../Sources/LineDetectionDouble.c **** #include "LineDetectionDouble.h"
   9:../Sources/LineDetectionDouble.c **** 
  10:../Sources/LineDetectionDouble.c **** extern float speedL;		// Used for Cross Section Detection
  11:../Sources/LineDetectionDouble.c **** extern float speedR;
  12:../Sources/LineDetectionDouble.c **** 
  13:../Sources/LineDetectionDouble.c **** static struct detectedTransitions_s lineTransitions = { .numberOfTransitions = 0 };
  14:../Sources/LineDetectionDouble.c **** static struct detectedTransitions_s lineTransitionsStop = { .numberOfTransitions = 0 };
  15:../Sources/LineDetectionDouble.c **** static struct detectedLines_s detectedLines = { .numberOfLines = 0 };
  16:../Sources/LineDetectionDouble.c **** static struct detectedTracks_s detectedTracks = { .numberOfTracks = 0 };
  17:../Sources/LineDetectionDouble.c **** static struct detectedDoubleLines_s detectedDoubleLines = { .numberOfLines = 0 };
  18:../Sources/LineDetectionDouble.c **** 
  19:../Sources/LineDetectionDouble.c **** static uint32_t trackWidthAverage = TRACK_WIDTH_MEAN;	// Used for track width probability evaluatio
  20:../Sources/LineDetectionDouble.c **** 
  21:../Sources/LineDetectionDouble.c **** // Variables used for cross section detection
  22:../Sources/LineDetectionDouble.c **** 	static int8_t lineCenterPrevious;
  23:../Sources/LineDetectionDouble.c **** 	static int8_t edgePreviousValid;
  24:../Sources/LineDetectionDouble.c **** 	static float lineCenterTemp;
  25:../Sources/LineDetectionDouble.c **** 	extern int32_t newExposure;		// Gives the time between the two frames
  26:../Sources/LineDetectionDouble.c **** /////////////////////////////////////////////
  27:../Sources/LineDetectionDouble.c **** 
  28:../Sources/LineDetectionDouble.c **** void findLine(volatile uint16_t* lineScanImage, volatile uint16_t* lineScanImage1, carState_s* carS
  29:../Sources/LineDetectionDouble.c **** {
  39              		.loc 1 29 0
  40              		.cfi_startproc
  41              	.LVL0:
  42 0000 F0B5     		push	{r4, r5, r6, r7, lr}
  43              	.LCFI0:
  44              		.cfi_def_cfa_offset 20
  45              		.cfi_offset 4, -20
  46              		.cfi_offset 5, -16
  47              		.cfi_offset 6, -12
  48              		.cfi_offset 7, -8
  49              		.cfi_offset 14, -4
  50 0002 4D46     		mov	r5, r9
  51 0004 4446     		mov	r4, r8
  52 0006 5F46     		mov	r7, fp
  53 0008 5646     		mov	r6, sl
  54 000a F0B4     		push	{r4, r5, r6, r7}
  55              	.LCFI1:
  56              		.cfi_def_cfa_offset 36
  57              		.cfi_offset 8, -36
  58              		.cfi_offset 9, -32
  59              		.cfi_offset 10, -28
  60              		.cfi_offset 11, -24
  61 000c 97B0     		sub	sp, sp, #92
  62              	.LCFI2:
  63              		.cfi_def_cfa_offset 128
  64              		.loc 1 29 0
  65 000e 0692     		str	r2, [sp, #24]
  30:../Sources/LineDetectionDouble.c **** 	/////////////////////////////////////////////////////////////
  31:../Sources/LineDetectionDouble.c **** 	static int16_t imageDifferential[128];	    // TODO: Remove static in case of not enough RAM
  32:../Sources/LineDetectionDouble.c **** 	static int16_t imageDifferentialTwo[128];	//
  33:../Sources/LineDetectionDouble.c **** 	
  34:../Sources/LineDetectionDouble.c **** 	lineTransitions.numberOfTransitions = 0;
  66              		.loc 1 34 0
  67 0010 8022     		mov	r2, #128
  68              	.LVL1:
  29:../Sources/LineDetectionDouble.c **** {
  69              		.loc 1 29 0
  70 0012 8946     		mov	r9, r1
  71              		.loc 1 34 0
  72 0014 CB4E     		ldr	r6, .L395
  73 0016 5100     		lsl	r1, r2, #1
  74              	.LVL2:
  35:../Sources/LineDetectionDouble.c **** 	lineTransitionsStop.numberOfTransitions = 0;
  75              		.loc 1 35 0
  76 0018 CB4F     		ldr	r7, .L395+4
  36:../Sources/LineDetectionDouble.c **** 	detectedLines.numberOfLines = 0;
  77              		.loc 1 36 0
  78 001a CC4A     		ldr	r2, .L395+8
  79 001c A024     		mov	r4, #160
  34:../Sources/LineDetectionDouble.c **** 	lineTransitions.numberOfTransitions = 0;
  80              		.loc 1 34 0
  81 001e 0023     		mov	r3, #0
  82              		.loc 1 36 0
  83 0020 A500     		lsl	r5, r4, #2
  84 0022 5355     		strb	r3, [r2, r5]
  34:../Sources/LineDetectionDouble.c **** 	lineTransitions.numberOfTransitions = 0;
  85              		.loc 1 34 0
  86 0024 7354     		strb	r3, [r6, r1]
  35:../Sources/LineDetectionDouble.c **** 	lineTransitionsStop.numberOfTransitions = 0;
  87              		.loc 1 35 0
  88 0026 7B54     		strb	r3, [r7, r1]
  37:../Sources/LineDetectionDouble.c **** 	
  38:../Sources/LineDetectionDouble.c **** 	detectedTracks.numberOfTracks = 0;
  39:../Sources/LineDetectionDouble.c **** 	struct detectedTrack_s bestTrack = { .certainty = 0 };
  40:../Sources/LineDetectionDouble.c **** 	static struct detectedTrack_s previousTrack;
  41:../Sources/LineDetectionDouble.c **** 	
  42:../Sources/LineDetectionDouble.c **** 	detectedDoubleLines.numberOfLines = 0;
  89              		.loc 1 42 0
  90 0028 C94C     		ldr	r4, .L395+12
  38:../Sources/LineDetectionDouble.c **** 	detectedTracks.numberOfTracks = 0;
  91              		.loc 1 38 0
  92 002a CA4D     		ldr	r5, .L395+16
  93 002c 8021     		mov	r1, #128
  94 002e 8A00     		lsl	r2, r1, #2
  43:../Sources/LineDetectionDouble.c **** 	detectedDoubleLines.maxDerivativeLeft = 0;
  95              		.loc 1 43 0
  96 0030 C949     		ldr	r1, .L395+20
  38:../Sources/LineDetectionDouble.c **** 	detectedTracks.numberOfTracks = 0;
  97              		.loc 1 38 0
  98 0032 AB54     		strb	r3, [r5, r2]
  42:../Sources/LineDetectionDouble.c **** 	detectedDoubleLines.numberOfLines = 0;
  99              		.loc 1 42 0
 100 0034 A354     		strb	r3, [r4, r2]
  44:../Sources/LineDetectionDouble.c **** 	detectedDoubleLines.maxDerivativeRight = 0;
 101              		.loc 1 44 0
 102 0036 8122     		mov	r2, #129
  43:../Sources/LineDetectionDouble.c **** 	detectedDoubleLines.maxDerivativeLeft = 0;
 103              		.loc 1 43 0
 104 0038 6352     		strh	r3, [r4, r1]
 105              		.loc 1 44 0
 106 003a 9100     		lsl	r1, r2, #2
 107 003c 6352     		strh	r3, [r4, r1]
  45:../Sources/LineDetectionDouble.c **** 	
  46:../Sources/LineDetectionDouble.c **** 	struct detectedDoubleLine_s bestLeft = { .relativePositionCertainty = 0, .certainty = 0 };
  47:../Sources/LineDetectionDouble.c **** 	struct detectedDoubleLine_s bestRight = { .relativePositionCertainty = 0, .certainty = 0};
  48:../Sources/LineDetectionDouble.c **** 	static struct detectedDoubleLine_s previousLeft = { .position = 64 + TRACK_WIDTH_MEAN/2};
  49:../Sources/LineDetectionDouble.c **** 	static struct detectedDoubleLine_s previousRight = { .position = 64 - TRACK_WIDTH_MEAN/2 };
  50:../Sources/LineDetectionDouble.c **** 	/////////////////////////////////////////////////////////////
  51:../Sources/LineDetectionDouble.c **** 
  52:../Sources/LineDetectionDouble.c **** 	////////////////////////////////////////////////////////////////////////////////////////////////
  53:../Sources/LineDetectionDouble.c **** 	edgeDetection(lineScanImage, imageDifferential, 128);
 108              		.loc 1 53 0
 109 003e 8022     		mov	r2, #128
 110 0040 C649     		ldr	r1, .L395+24
  39:../Sources/LineDetectionDouble.c **** 	struct detectedTrack_s bestTrack = { .certainty = 0 };
 111              		.loc 1 39 0
 112 0042 0A93     		str	r3, [sp, #40]
 113 0044 0B93     		str	r3, [sp, #44]
 114 0046 0C93     		str	r3, [sp, #48]
 115 0048 0D93     		str	r3, [sp, #52]
  46:../Sources/LineDetectionDouble.c **** 	struct detectedDoubleLine_s bestLeft = { .relativePositionCertainty = 0, .certainty = 0 };
 116              		.loc 1 46 0
 117 004a 0E93     		str	r3, [sp, #56]
 118 004c 0F93     		str	r3, [sp, #60]
 119 004e 1093     		str	r3, [sp, #64]
 120 0050 1193     		str	r3, [sp, #68]
  47:../Sources/LineDetectionDouble.c **** 	struct detectedDoubleLine_s bestRight = { .relativePositionCertainty = 0, .certainty = 0};
 121              		.loc 1 47 0
 122 0052 1293     		str	r3, [sp, #72]
 123 0054 1393     		str	r3, [sp, #76]
 124 0056 1493     		str	r3, [sp, #80]
 125 0058 1593     		str	r3, [sp, #84]
 126              		.loc 1 53 0
 127 005a FFF7FEFF 		bl	edgeDetection
 128              	.LVL3:
  54:../Sources/LineDetectionDouble.c **** 	#ifdef LINE_DISTANCE_ENABLE
  55:../Sources/LineDetectionDouble.c **** 	edgeDetection(lineScanImage1, imageDifferentialTwo, 128);
 129              		.loc 1 55 0
 130 005e C048     		ldr	r0, .L395+28
 131 0060 8022     		mov	r2, #128
 132 0062 8046     		mov	r8, r0
 133 0064 4146     		mov	r1, r8
 134 0066 4846     		mov	r0, r9
 135 0068 FFF7FEFF 		bl	edgeDetection
 136              	.LVL4:
 137              	.LBB56:
 138              	.LBB57:
  56:../Sources/LineDetectionDouble.c **** 	carState->lineDistance = findLineDistance(imageDifferentialTwo, DISTANCE_DERIVATIVE_THRESHOLD, DIS
  57:../Sources/LineDetectionDouble.c **** 	#endif
  58:../Sources/LineDetectionDouble.c **** 	findTransitions(&lineTransitions, imageDifferential, DERIVATIVE_THRESHOLD);
  59:../Sources/LineDetectionDouble.c **** 	findTransitions(&lineTransitionsStop, imageDifferential, DERIVATIVE_THRESHOLD_STOP);
  60:../Sources/LineDetectionDouble.c **** 	transitionsToLines(&detectedLines, &lineTransitionsStop);
  61:../Sources/LineDetectionDouble.c **** 	transitionsToTracks(&detectedTracks, &lineTransitions);
  62:../Sources/LineDetectionDouble.c **** 	transitionsToDoubleLines(&detectedDoubleLines, &lineTransitions);
  63:../Sources/LineDetectionDouble.c **** 	////////////////////////////////////////////////////////////////////////////////////////////////
  64:../Sources/LineDetectionDouble.c **** 	
  65:../Sources/LineDetectionDouble.c **** 	if(cross_section_enable == 1)
  66:../Sources/LineDetectionDouble.c **** 	{
  67:../Sources/LineDetectionDouble.c **** 		lineCenterPrevious = carState->lineCenter;
  68:../Sources/LineDetectionDouble.c **** 		if (carState->edge == LEFT_EDGE || carState->edge == RIGHT_EDGE)
  69:../Sources/LineDetectionDouble.c **** 		{
  70:../Sources/LineDetectionDouble.c **** 			edgePreviousValid = carState->edge;
  71:../Sources/LineDetectionDouble.c **** 		}
  72:../Sources/LineDetectionDouble.c **** 	}
  73:../Sources/LineDetectionDouble.c **** 		
  74:../Sources/LineDetectionDouble.c **** 	if(carState->carMode == NORMAL_MODE
  75:../Sources/LineDetectionDouble.c **** 			&& carState->lineDistance > STRAIGHT_DISTANCE_THRESHOLD
  76:../Sources/LineDetectionDouble.c **** 			&& abs(carState->lineCenter) <= STRAIGHT_ERROR_THRESHOLD
  77:../Sources/LineDetectionDouble.c **** 			&& carState->lineDetectionState == LINE_FOUND)
  78:../Sources/LineDetectionDouble.c **** 	{
  79:../Sources/LineDetectionDouble.c **** 		carState->carMode = STRAIGHT_MODE;
  80:../Sources/LineDetectionDouble.c **** 	}	
  81:../Sources/LineDetectionDouble.c **** 	else if(carState->carMode == STRAIGHT_MODE
  82:../Sources/LineDetectionDouble.c **** 				&& (carState->lineDistance <=STRAIGHT_DISTANCE_THRESHOLD
  83:../Sources/LineDetectionDouble.c **** 					|| abs(carState->lineCenter) > STRAIGHT_CRITICAL_ERROR))
  84:../Sources/LineDetectionDouble.c **** 	{
  85:../Sources/LineDetectionDouble.c **** 		carState->carMode = NORMAL_MODE;
  86:../Sources/LineDetectionDouble.c **** 	}
  87:../Sources/LineDetectionDouble.c **** 
  88:../Sources/LineDetectionDouble.c **** 	////////////////////////////////////////////////////////////////////////////////////////////////
  89:../Sources/LineDetectionDouble.c **** 	if (detectedTracks.numberOfTracks == 0 && detectedDoubleLines.numberOfLines == 0)
  90:../Sources/LineDetectionDouble.c **** 	{
  91:../Sources/LineDetectionDouble.c **** 		if (carState->lineDetectionState != STOPLINE_DETECTED)
  92:../Sources/LineDetectionDouble.c **** 		{
  93:../Sources/LineDetectionDouble.c **** 			if(TFC_Ticker[3] < MAX_LOST_LINE_DURATION)
  94:../Sources/LineDetectionDouble.c **** 			{
  95:../Sources/LineDetectionDouble.c **** 				carState->lineDetectionState = LINE_TEMPORARILY_LOST;
  96:../Sources/LineDetectionDouble.c **** 				carState->detectedType = NONE;
  97:../Sources/LineDetectionDouble.c **** 				carState->edge = NO_EDGE;
  98:../Sources/LineDetectionDouble.c **** 				
  99:../Sources/LineDetectionDouble.c **** 				if(cross_section_enable == 1)
 100:../Sources/LineDetectionDouble.c **** 				{
 101:../Sources/LineDetectionDouble.c **** 					if(carState->crossSection == YES)
 102:../Sources/LineDetectionDouble.c **** 					{
 103:../Sources/LineDetectionDouble.c **** 						carState->crossSectionPosition = MIDDLE;
 104:../Sources/LineDetectionDouble.c **** 						lineCenterTemp = lineCenterTemp*CROSS_LINE_ERROR_REDUCTION;
 105:../Sources/LineDetectionDouble.c **** 						carState->lineCenter = (int8_t)(lineCenterTemp);
 106:../Sources/LineDetectionDouble.c **** 					}
 107:../Sources/LineDetectionDouble.c **** 				}
 108:../Sources/LineDetectionDouble.c **** 			}
 109:../Sources/LineDetectionDouble.c **** 			else if(TFC_Ticker[3] >= MAX_LOST_LINE_DURATION)
 110:../Sources/LineDetectionDouble.c **** 			{
 111:../Sources/LineDetectionDouble.c **** 				carState->lineDetectionState = LINE_LOST;
 112:../Sources/LineDetectionDouble.c **** 				carState->detectedType = NONE;
 113:../Sources/LineDetectionDouble.c **** 				carState->edge = NO_EDGE;
 114:../Sources/LineDetectionDouble.c **** 			}
 115:../Sources/LineDetectionDouble.c **** 		}
 116:../Sources/LineDetectionDouble.c **** 		return;
 117:../Sources/LineDetectionDouble.c **** 	}
 118:../Sources/LineDetectionDouble.c **** 	////////////////////////////////////////////////////////////////////////////////////////////////
 119:../Sources/LineDetectionDouble.c **** 	
 120:../Sources/LineDetectionDouble.c **** 	////////////////////////////////////////////////////////////////////////////////////////////////
 121:../Sources/LineDetectionDouble.c **** 	//Populate lines certainty values
 122:../Sources/LineDetectionDouble.c **** 	weightTracks(&previousTrack, &detectedTracks);
 123:../Sources/LineDetectionDouble.c **** 	weightDoubleLines(&previousLeft, &detectedDoubleLines, LEFT);
 124:../Sources/LineDetectionDouble.c **** 	weightDoubleLines(&previousRight, &detectedDoubleLines, RIGHT);
 125:../Sources/LineDetectionDouble.c **** 	////////////////////////////////////////////////////////////////////////////////////////////////
 126:../Sources/LineDetectionDouble.c **** 	
 127:../Sources/LineDetectionDouble.c **** 	////////////////////////////////////////////////////////////////////////////////////////////////
 128:../Sources/LineDetectionDouble.c **** 	//Select track with highest certainty
 129:../Sources/LineDetectionDouble.c **** 	for (uint8_t k = 0; k < detectedTracks.numberOfTracks; k++)
 130:../Sources/LineDetectionDouble.c **** 	{
 131:../Sources/LineDetectionDouble.c **** 		if (detectedTracks.track[k].certainty > bestTrack.certainty)
 132:../Sources/LineDetectionDouble.c **** 		{
 133:../Sources/LineDetectionDouble.c **** 			bestTrack = detectedTracks.track[k];
 134:../Sources/LineDetectionDouble.c **** 		}
 135:../Sources/LineDetectionDouble.c **** 	}
 136:../Sources/LineDetectionDouble.c **** 	// TERMINAL_PRINTF("Found line at %i with width %i,\t width certainty %i,\t relative position diff
 137:../Sources/LineDetectionDouble.c **** 
 138:../Sources/LineDetectionDouble.c **** 	//Select doubleLines with highest certainty
 139:../Sources/LineDetectionDouble.c **** 	for (uint8_t k = 0; k < detectedDoubleLines.numberOfLines; k++)
 140:../Sources/LineDetectionDouble.c **** 	{
 141:../Sources/LineDetectionDouble.c **** 		if (detectedDoubleLines.line[k].lineType == LEFT && detectedDoubleLines.line[k].certainty > bestL
 142:../Sources/LineDetectionDouble.c **** 		{
 143:../Sources/LineDetectionDouble.c **** 			bestLeft = detectedDoubleLines.line[k];
 144:../Sources/LineDetectionDouble.c **** 		}
 145:../Sources/LineDetectionDouble.c **** 		else if (detectedDoubleLines.line[k].lineType == RIGHT && detectedDoubleLines.line[k].certainty >
 146:../Sources/LineDetectionDouble.c **** 		{
 147:../Sources/LineDetectionDouble.c **** 			bestRight = detectedDoubleLines.line[k];
 148:../Sources/LineDetectionDouble.c **** 		}
 149:../Sources/LineDetectionDouble.c **** 	}
 150:../Sources/LineDetectionDouble.c **** 	////////////////////////////////////////////////////////////////////////////////////////////////
 151:../Sources/LineDetectionDouble.c **** 	
 152:../Sources/LineDetectionDouble.c **** 	if (bestLeft.certainty > MIN_CERTAINTY)
 153:../Sources/LineDetectionDouble.c **** 		previousLeft = bestLeft;
 154:../Sources/LineDetectionDouble.c **** 	if (bestRight.certainty > MIN_CERTAINTY)
 155:../Sources/LineDetectionDouble.c **** 		previousRight = bestRight;
 156:../Sources/LineDetectionDouble.c **** 	
 157:../Sources/LineDetectionDouble.c **** 	////////////////////////////////////////////////////////////////////////////////////////////////
 158:../Sources/LineDetectionDouble.c **** #ifdef DOUBLE_LINE_DETECTION
 159:../Sources/LineDetectionDouble.c **** 	if (bestTrack.certainty > MIN_CERTAINTY)
 160:../Sources/LineDetectionDouble.c **** 	{
 161:../Sources/LineDetectionDouble.c **** 		previousTrack = bestTrack;
 162:../Sources/LineDetectionDouble.c **** 		
 163:../Sources/LineDetectionDouble.c **** 		carState->lineCenter = bestTrack.center;
 164:../Sources/LineDetectionDouble.c **** 		
 165:../Sources/LineDetectionDouble.c **** 		if (carState->lineDetectionState != STOPLINE_DETECTED)
 166:../Sources/LineDetectionDouble.c **** 		{
 167:../Sources/LineDetectionDouble.c **** 			carState->lineDetectionState = LINE_FOUND;
 168:../Sources/LineDetectionDouble.c **** 			carState->detectedType = DOUBLE_EDGE;
 169:../Sources/LineDetectionDouble.c **** 			carState->edge = BOTH_EDGE;
 170:../Sources/LineDetectionDouble.c **** 		}
 171:../Sources/LineDetectionDouble.c **** 		
 172:../Sources/LineDetectionDouble.c **** 		if(cross_section_enable == 1)
 173:../Sources/LineDetectionDouble.c **** 		{
 174:../Sources/LineDetectionDouble.c **** 			if(carState->crossSection == YES)
 175:../Sources/LineDetectionDouble.c **** 			{
 176:../Sources/LineDetectionDouble.c **** 				carState->crossSection = NO;
 177:../Sources/LineDetectionDouble.c **** 				carState->crossSectionPosition = NO_CROSS;
 178:../Sources/LineDetectionDouble.c **** 			}
 179:../Sources/LineDetectionDouble.c **** 		}
 180:../Sources/LineDetectionDouble.c **** 		
 181:../Sources/LineDetectionDouble.c **** 		if (bestTrack.width >= TRACK_WIDTH_MIN && bestTrack.width <= TRACK_WIDTH_MAX)
 182:../Sources/LineDetectionDouble.c **** 		{
 183:../Sources/LineDetectionDouble.c **** 			trackWidthAverage = bestTrack.width;
 184:../Sources/LineDetectionDouble.c **** 		}	
 185:../Sources/LineDetectionDouble.c **** 			
 186:../Sources/LineDetectionDouble.c **** 		TFC_Ticker[3] = 0;
 187:../Sources/LineDetectionDouble.c **** 		return;
 188:../Sources/LineDetectionDouble.c **** 	}
 189:../Sources/LineDetectionDouble.c **** 	else
 190:../Sources/LineDetectionDouble.c **** 	{
 191:../Sources/LineDetectionDouble.c **** 		bestTrack.widthCertainty = 0;
 192:../Sources/LineDetectionDouble.c **** 		//Select line with highest certainty based on just width
 193:../Sources/LineDetectionDouble.c **** 		for (uint8_t k = 0; k < detectedTracks.numberOfTracks; k++)
 194:../Sources/LineDetectionDouble.c **** 		{
 195:../Sources/LineDetectionDouble.c **** 			if (bestTrack.widthCertainty < detectedTracks.track[k].widthCertainty)
 196:../Sources/LineDetectionDouble.c **** 			{
 197:../Sources/LineDetectionDouble.c **** 				bestTrack = detectedTracks.track[k];
 198:../Sources/LineDetectionDouble.c **** 			}
 199:../Sources/LineDetectionDouble.c **** 		}
 200:../Sources/LineDetectionDouble.c **** 		if (bestTrack.widthCertainty > MIN_CERTAINTY)
 201:../Sources/LineDetectionDouble.c **** 		{
 202:../Sources/LineDetectionDouble.c **** 			previousTrack = bestTrack;
 203:../Sources/LineDetectionDouble.c **** 			TFC_Ticker[3] = 0;
 204:../Sources/LineDetectionDouble.c **** 			
 205:../Sources/LineDetectionDouble.c **** 			carState->lineCenter = bestTrack.center;
 206:../Sources/LineDetectionDouble.c **** 			
 207:../Sources/LineDetectionDouble.c **** 			if (carState->lineDetectionState != STOPLINE_DETECTED)
 208:../Sources/LineDetectionDouble.c **** 			{
 209:../Sources/LineDetectionDouble.c **** 				carState->lineDetectionState = LINE_FOUND;
 210:../Sources/LineDetectionDouble.c **** 				carState->detectedType = DOUBLE_EDGE;
 211:../Sources/LineDetectionDouble.c **** 				carState->edge = BOTH_EDGE;
 212:../Sources/LineDetectionDouble.c **** 			}
 213:../Sources/LineDetectionDouble.c **** 			
 214:../Sources/LineDetectionDouble.c **** 			if(cross_section_enable == 1)
 215:../Sources/LineDetectionDouble.c **** 			{
 216:../Sources/LineDetectionDouble.c **** 				if(carState->crossSection == YES)
 217:../Sources/LineDetectionDouble.c **** 				{
 218:../Sources/LineDetectionDouble.c **** 					carState->crossSection = NO;
 219:../Sources/LineDetectionDouble.c **** 					carState->crossSectionPosition = NO_CROSS;
 220:../Sources/LineDetectionDouble.c **** 				}
 221:../Sources/LineDetectionDouble.c **** 			}
 222:../Sources/LineDetectionDouble.c **** 			
 223:../Sources/LineDetectionDouble.c **** 			return;
 224:../Sources/LineDetectionDouble.c **** 		}
 225:../Sources/LineDetectionDouble.c **** 	} 
 226:../Sources/LineDetectionDouble.c **** #endif	
 227:../Sources/LineDetectionDouble.c **** 	
 228:../Sources/LineDetectionDouble.c **** 	if (bestLeft.certainty > MIN_CERTAINTY || bestRight.certainty > MIN_CERTAINTY)
 229:../Sources/LineDetectionDouble.c **** 	{	
 230:../Sources/LineDetectionDouble.c **** 		if (bestLeft.certainty >= bestRight.certainty)
 231:../Sources/LineDetectionDouble.c **** 		{
 232:../Sources/LineDetectionDouble.c **** 			carState->lineCenter = (bestLeft.position - trackWidthAverage/2 - 64) - CAMERA_CENTER_OFFSET;
 233:../Sources/LineDetectionDouble.c **** 			carState->edge = LEFT_EDGE;
 234:../Sources/LineDetectionDouble.c **** 		} 
 235:../Sources/LineDetectionDouble.c **** 		else if (bestRight.certainty > bestLeft.certainty)
 236:../Sources/LineDetectionDouble.c **** 		{
 237:../Sources/LineDetectionDouble.c **** 			carState->lineCenter = (bestRight.position + trackWidthAverage/2 - 64) - CAMERA_CENTER_OFFSET;
 238:../Sources/LineDetectionDouble.c **** 			carState->edge = RIGHT_EDGE;
 239:../Sources/LineDetectionDouble.c **** 		}
 240:../Sources/LineDetectionDouble.c **** 		
 241:../Sources/LineDetectionDouble.c **** 		if(cross_section_enable == 1)
 242:../Sources/LineDetectionDouble.c **** 		{
 243:../Sources/LineDetectionDouble.c **** 			if(carState->crossSection == NO)
 244:../Sources/LineDetectionDouble.c **** 			{	
 245:../Sources/LineDetectionDouble.c **** 				float carSpeed = (speedL + speedR)/2;
 246:../Sources/LineDetectionDouble.c **** 				float crossDerivative = ((float)lineCenterPrevious - (float)carState->lineCenter)/(((float)newE
 247:../Sources/LineDetectionDouble.c **** 				
 248:../Sources/LineDetectionDouble.c **** 				if(((crossDerivative > CROSS_DERIVATIVE_THRESHOLD && carState->edge == RIGHT_EDGE) || (crossDer
 249:../Sources/LineDetectionDouble.c **** 					&& carSpeed > CROSS_MIN_SPEED
 250:../Sources/LineDetectionDouble.c **** 					&& carState->lineDistance >= CROSS_MINIMUM_DISTANCE
 251:../Sources/LineDetectionDouble.c **** 					/* Might Require lineCenter threshold as well */)
 252:../Sources/LineDetectionDouble.c **** 				{
 253:../Sources/LineDetectionDouble.c **** 					lineCenterTemp = lineCenterTemp*CROSS_LINE_ERROR_REDUCTION;
 254:../Sources/LineDetectionDouble.c **** 					carState->lineCenter = (int8_t)(lineCenterTemp);
 255:../Sources/LineDetectionDouble.c **** 					carState->crossSection = YES;
 256:../Sources/LineDetectionDouble.c **** 					carState->crossSectionPosition = BEGINNING;
 257:../Sources/LineDetectionDouble.c **** 					lineCenterTemp = (float)lineCenterPrevious;
 258:../Sources/LineDetectionDouble.c **** 				}
 259:../Sources/LineDetectionDouble.c **** 			}
 260:../Sources/LineDetectionDouble.c **** 			else
 261:../Sources/LineDetectionDouble.c **** 			{
 262:../Sources/LineDetectionDouble.c **** 				if(carState->crossSectionPosition == BEGINNING)
 263:../Sources/LineDetectionDouble.c **** 				{
 264:../Sources/LineDetectionDouble.c **** 					if(carState->edge == edgePreviousValid)
 265:../Sources/LineDetectionDouble.c **** 					{
 266:../Sources/LineDetectionDouble.c **** 						lineCenterTemp = lineCenterTemp*CROSS_LINE_ERROR_REDUCTION;
 267:../Sources/LineDetectionDouble.c **** 						carState->lineCenter = (int8_t)(lineCenterTemp);
 268:../Sources/LineDetectionDouble.c **** 					}
 269:../Sources/LineDetectionDouble.c **** 					else
 270:../Sources/LineDetectionDouble.c **** 					{
 271:../Sources/LineDetectionDouble.c **** 						carState->crossSection = NO;
 272:../Sources/LineDetectionDouble.c **** 						carState->crossSectionPosition = NO_CROSS;						
 273:../Sources/LineDetectionDouble.c **** 					}
 274:../Sources/LineDetectionDouble.c **** 				}
 275:../Sources/LineDetectionDouble.c **** 				else
 276:../Sources/LineDetectionDouble.c **** 				{
 277:../Sources/LineDetectionDouble.c **** 					carState->crossSection = NO;
 278:../Sources/LineDetectionDouble.c **** 					carState->crossSectionPosition = NO_CROSS;
 279:../Sources/LineDetectionDouble.c **** 				}
 280:../Sources/LineDetectionDouble.c **** 			}
 281:../Sources/LineDetectionDouble.c **** 		}
 282:../Sources/LineDetectionDouble.c **** 		
 283:../Sources/LineDetectionDouble.c **** 		if (carState->lineDetectionState != STOPLINE_DETECTED)
 284:../Sources/LineDetectionDouble.c **** 		{
 285:../Sources/LineDetectionDouble.c **** 			carState->lineDetectionState = LINE_FOUND;
 286:../Sources/LineDetectionDouble.c **** 			carState->detectedType = SINGLE_EDGE;
 287:../Sources/LineDetectionDouble.c **** 		}
 288:../Sources/LineDetectionDouble.c **** 		
 289:../Sources/LineDetectionDouble.c **** 		TFC_Ticker[3] = 0;
 290:../Sources/LineDetectionDouble.c **** 		return;
 291:../Sources/LineDetectionDouble.c **** 	}
 292:../Sources/LineDetectionDouble.c **** 	else
 293:../Sources/LineDetectionDouble.c **** 	{
 294:../Sources/LineDetectionDouble.c **** 		bestLeft.derivativeCertainty = 0.0f;
 295:../Sources/LineDetectionDouble.c **** 		bestRight.derivativeCertainty = 0.0f;
 296:../Sources/LineDetectionDouble.c **** 		
 297:../Sources/LineDetectionDouble.c **** 		for (uint8_t k = 0; k < detectedDoubleLines.numberOfLines; k++)
 298:../Sources/LineDetectionDouble.c **** 		{
 299:../Sources/LineDetectionDouble.c **** 			if (detectedDoubleLines.line[k].lineType == LEFT && detectedDoubleLines.line[k].derivativeCertai
 300:../Sources/LineDetectionDouble.c **** 			{
 301:../Sources/LineDetectionDouble.c **** 				bestLeft = detectedDoubleLines.line[k];
 302:../Sources/LineDetectionDouble.c **** 			}
 303:../Sources/LineDetectionDouble.c **** 			else if (detectedDoubleLines.line[k].lineType == RIGHT && detectedDoubleLines.line[k].derivative
 304:../Sources/LineDetectionDouble.c **** 			{
 305:../Sources/LineDetectionDouble.c **** 				bestRight = detectedDoubleLines.line[k];
 306:../Sources/LineDetectionDouble.c **** 			}
 307:../Sources/LineDetectionDouble.c **** 		}
 308:../Sources/LineDetectionDouble.c **** 		
 309:../Sources/LineDetectionDouble.c **** 		if (bestLeft.derivativeCertainty > MIN_CERTAINTY || bestRight.derivativeCertainty > MIN_CERTAINTY
 310:../Sources/LineDetectionDouble.c **** 		{		
 311:../Sources/LineDetectionDouble.c **** 			if (bestLeft.derivativeCertainty >= bestRight.derivativeCertainty)
 312:../Sources/LineDetectionDouble.c **** 			{
 313:../Sources/LineDetectionDouble.c **** 				carState->lineCenter = (bestLeft.position + trackWidthAverage/2 - 64) - CAMERA_CENTER_OFFSET;
 314:../Sources/LineDetectionDouble.c **** 				carState->edge = LEFT_EDGE;
 315:../Sources/LineDetectionDouble.c **** 			}
 316:../Sources/LineDetectionDouble.c **** 			else if (bestRight.derivativeCertainty > bestLeft.derivativeCertainty)
 317:../Sources/LineDetectionDouble.c **** 			{
 318:../Sources/LineDetectionDouble.c **** 				carState->lineCenter = (bestRight.position - trackWidthAverage/2 - 64) - CAMERA_CENTER_OFFSET;
 319:../Sources/LineDetectionDouble.c **** 				carState->edge = RIGHT_EDGE;
 320:../Sources/LineDetectionDouble.c **** 			}
 321:../Sources/LineDetectionDouble.c **** 			
 322:../Sources/LineDetectionDouble.c **** 			if(cross_section_enable == 1)
 323:../Sources/LineDetectionDouble.c **** 			{
 324:../Sources/LineDetectionDouble.c **** 				if(carState->crossSection == YES && carState->crossSectionPosition == MIDDLE)
 325:../Sources/LineDetectionDouble.c **** 				{
 326:../Sources/LineDetectionDouble.c **** 					carState->crossSection = NO;
 327:../Sources/LineDetectionDouble.c **** 					carState->crossSectionPosition = NO_CROSS;
 328:../Sources/LineDetectionDouble.c **** 				}
 329:../Sources/LineDetectionDouble.c **** 				else if(carState->crossSection == YES && carState->crossSectionPosition == BEGINNING)
 330:../Sources/LineDetectionDouble.c **** 				{
 331:../Sources/LineDetectionDouble.c **** 					lineCenterTemp = lineCenterTemp*CROSS_LINE_ERROR_REDUCTION;
 332:../Sources/LineDetectionDouble.c **** 					carState->lineCenter = (int8_t)(lineCenterTemp);
 333:../Sources/LineDetectionDouble.c **** 				}
 334:../Sources/LineDetectionDouble.c **** 			}
 335:../Sources/LineDetectionDouble.c **** 			
 336:../Sources/LineDetectionDouble.c **** 			if (bestLeft.derivativeCertainty > MIN_CERTAINTY)
 337:../Sources/LineDetectionDouble.c **** 				previousLeft = bestLeft;
 338:../Sources/LineDetectionDouble.c **** 			if (bestRight.derivativeCertainty > MIN_CERTAINTY)
 339:../Sources/LineDetectionDouble.c **** 				previousRight = bestRight;
 340:../Sources/LineDetectionDouble.c **** 			
 341:../Sources/LineDetectionDouble.c **** 			if (carState->lineDetectionState != STOPLINE_DETECTED)
 342:../Sources/LineDetectionDouble.c **** 			{
 343:../Sources/LineDetectionDouble.c **** 				carState->lineDetectionState = LINE_FOUND;
 344:../Sources/LineDetectionDouble.c **** 				carState->detectedType = SINGLE_EDGE;
 345:../Sources/LineDetectionDouble.c **** 			}
 346:../Sources/LineDetectionDouble.c **** 			
 347:../Sources/LineDetectionDouble.c **** 			TFC_Ticker[3] = 0;
 348:../Sources/LineDetectionDouble.c **** 			return;
 349:../Sources/LineDetectionDouble.c **** 		}
 350:../Sources/LineDetectionDouble.c **** 	} 
 351:../Sources/LineDetectionDouble.c **** 	////////////////////////////////////////////////////////////////////////////////////////////////
 352:../Sources/LineDetectionDouble.c **** 
 353:../Sources/LineDetectionDouble.c **** 	////////////////////////////////////////////////////////////////////////////////////////////////
 354:../Sources/LineDetectionDouble.c **** 	if (TFC_Ticker[3] < MAX_LOST_LINE_DURATION)
 355:../Sources/LineDetectionDouble.c **** 	{
 356:../Sources/LineDetectionDouble.c **** 		if (carState->lineDetectionState != STOPLINE_DETECTED)
 357:../Sources/LineDetectionDouble.c **** 		{
 358:../Sources/LineDetectionDouble.c **** 			carState->lineDetectionState = LINE_TEMPORARILY_LOST;
 359:../Sources/LineDetectionDouble.c **** 			carState->detectedType = NONE;
 360:../Sources/LineDetectionDouble.c **** 			carState->edge = NO_EDGE;			
 361:../Sources/LineDetectionDouble.c **** 		}
 362:../Sources/LineDetectionDouble.c **** 		
 363:../Sources/LineDetectionDouble.c **** 		if(cross_section_enable == 1)
 364:../Sources/LineDetectionDouble.c **** 		{
 365:../Sources/LineDetectionDouble.c **** 			if(carState->crossSection == YES && TFC_Ticker[3] >= CROSS_MID_TIME_THRESHOLD)
 366:../Sources/LineDetectionDouble.c **** 			{
 367:../Sources/LineDetectionDouble.c **** 				carState->crossSectionPosition = MIDDLE;
 368:../Sources/LineDetectionDouble.c **** 				carState->lineCenter = (int8_t)((float)lineCenterPrevious*CROSS_LINE_ERROR_REDUCTION);
 369:../Sources/LineDetectionDouble.c **** 			}
 370:../Sources/LineDetectionDouble.c **** 		}
 371:../Sources/LineDetectionDouble.c **** 	
 372:../Sources/LineDetectionDouble.c **** 		return;
 373:../Sources/LineDetectionDouble.c **** 	}
 374:../Sources/LineDetectionDouble.c **** 
 375:../Sources/LineDetectionDouble.c **** 	// No line found
 376:../Sources/LineDetectionDouble.c **** 	if (carState->lineDetectionState != STOPLINE_DETECTED && TFC_Ticker[3] >= MAX_LOST_LINE_DURATION)
 377:../Sources/LineDetectionDouble.c **** 	{
 378:../Sources/LineDetectionDouble.c **** 		carState->lineDetectionState = LINE_LOST;
 379:../Sources/LineDetectionDouble.c **** 		carState->detectedType = NONE;
 380:../Sources/LineDetectionDouble.c **** 		carState->edge = NO_EDGE;
 381:../Sources/LineDetectionDouble.c **** 	}
 382:../Sources/LineDetectionDouble.c **** 	////////////////////////////////////////////////////////////////////////////////////////////////
 383:../Sources/LineDetectionDouble.c **** 	
 384:../Sources/LineDetectionDouble.c **** 	return;
 385:../Sources/LineDetectionDouble.c **** }
 386:../Sources/LineDetectionDouble.c **** 
 387:../Sources/LineDetectionDouble.c **** int8_t findTransitions(struct detectedTransitions_s* detectedTransitions, int16_t* derivative, uint
 388:../Sources/LineDetectionDouble.c **** {
 389:../Sources/LineDetectionDouble.c **** 	//Find and log positions of all transitions and their directions
 390:../Sources/LineDetectionDouble.c **** 	for (uint8_t k = 0; k < 128 && detectedTransitions->numberOfTransitions < MAX_NUMBER_OF_TRANSITION
 391:../Sources/LineDetectionDouble.c **** 	{
 392:../Sources/LineDetectionDouble.c **** 		if (derivative[k] >= derivativeThreshold)
 393:../Sources/LineDetectionDouble.c **** 		{
 394:../Sources/LineDetectionDouble.c **** 			detectedTransitions->transition[detectedTransitions->numberOfTransitions].position = k;
 395:../Sources/LineDetectionDouble.c **** 			detectedTransitions->transition[detectedTransitions->numberOfTransitions].direction = blackToWhi
 396:../Sources/LineDetectionDouble.c **** 			detectedTransitions->transition[detectedTransitions->numberOfTransitions].derivative = derivativ
 397:../Sources/LineDetectionDouble.c **** 			//TERMINAL_PRINTF("end at %i, ", detectedTransitions->transition[detectedTransitions->numberOfTr
 398:../Sources/LineDetectionDouble.c **** 			detectedTransitions->numberOfTransitions++;
 399:../Sources/LineDetectionDouble.c **** 		}
 400:../Sources/LineDetectionDouble.c **** 		else if (derivative[k] <= -derivativeThreshold)
 401:../Sources/LineDetectionDouble.c **** 		{
 402:../Sources/LineDetectionDouble.c **** 			detectedTransitions->transition[detectedTransitions->numberOfTransitions].position = k;
 403:../Sources/LineDetectionDouble.c **** 			detectedTransitions->transition[detectedTransitions->numberOfTransitions].direction = whiteToBla
 404:../Sources/LineDetectionDouble.c **** 			detectedTransitions->transition[detectedTransitions->numberOfTransitions].derivative = (-derivat
 405:../Sources/LineDetectionDouble.c **** 			//TERMINAL_PRINTF("start at %i, ", detectedTransitions->transition[detectedTransitions->numberOf
 406:../Sources/LineDetectionDouble.c **** 			detectedTransitions->numberOfTransitions++;
 407:../Sources/LineDetectionDouble.c **** 		}
 408:../Sources/LineDetectionDouble.c **** 	}
 409:../Sources/LineDetectionDouble.c **** 	//TERMINAL_PRINTF("/n");
 410:../Sources/LineDetectionDouble.c **** 	return 0;
 411:../Sources/LineDetectionDouble.c **** }
 412:../Sources/LineDetectionDouble.c **** 
 413:../Sources/LineDetectionDouble.c **** #ifdef LINE_DISTANCE_ENABLE
 414:../Sources/LineDetectionDouble.c **** uint8_t findLineDistance(int16_t* derivative, uint16_t derivativeThreshold, uint8_t maxDistance)
 415:../Sources/LineDetectionDouble.c **** {
 416:../Sources/LineDetectionDouble.c **** 	if(maxDistance > 120)
 417:../Sources/LineDetectionDouble.c **** 		maxDistance = 120;
 418:../Sources/LineDetectionDouble.c **** 	
 419:../Sources/LineDetectionDouble.c **** 	for (uint8_t k = 5; k < maxDistance; k++)
 420:../Sources/LineDetectionDouble.c **** 	{
 421:../Sources/LineDetectionDouble.c **** 		if (derivative[k] <= -derivativeThreshold)	// Checks only for white to black transitions
 139              		.loc 1 421 0
 140 006c 4246     		mov	r2, r8
 141 006e 0A21     		mov	r1, #10
 142 0070 505E     		ldrsh	r0, [r2, r1]
 143              	.LBE57:
 144              	.LBE56:
 419:../Sources/LineDetectionDouble.c **** 	for (uint8_t k = 5; k < maxDistance; k++)
 145              		.loc 1 419 0
 146 0072 0523     		mov	r3, #5
 147              	.LBB59:
 148              	.LBB58:
 149              		.loc 1 421 0
 150 0074 9F30     		add	r0, r0, #159
 151 0076 13DB     		blt	.L2
 152 0078 4246     		mov	r2, r8
 419:../Sources/LineDetectionDouble.c **** 	for (uint8_t k = 5; k < maxDistance; k++)
 153              		.loc 1 419 0
 154 007a 0623     		mov	r3, #6
 155              	.LVL5:
 156 007c 0C32     		add	r2, r2, #12
 157 007e 0BE0     		b	.L3
 158              	.LVL6:
 159              	.L356:
 160 0080 911C     		add	r1, r2, #2
 161              		.loc 1 421 0
 162 0082 0220     		mov	r0, #2
 163 0084 125E     		ldrsh	r2, [r2, r0]
 419:../Sources/LineDetectionDouble.c **** 	for (uint8_t k = 5; k < maxDistance; k++)
 164              		.loc 1 419 0
 165 0086 0133     		add	r3, r3, #1
 166 0088 DBB2     		uxtb	r3, r3
 167              	.LVL7:
 168              		.loc 1 421 0
 169 008a 9F32     		add	r2, r2, #159
 170 008c 08DB     		blt	.L2
 419:../Sources/LineDetectionDouble.c **** 	for (uint8_t k = 5; k < maxDistance; k++)
 171              		.loc 1 419 0
 172 008e 0133     		add	r3, r3, #1
 173              	.LVL8:
 174 0090 DBB2     		uxtb	r3, r3
 175              	.LVL9:
 176 0092 8A1C     		add	r2, r1, #2
 177 0094 782B     		cmp	r3, #120
 178 0096 03D0     		beq	.L2
 179              	.LVL10:
 180              	.L3:
 181              		.loc 1 421 0
 182 0098 0020     		mov	r0, #0
 183 009a 115E     		ldrsh	r1, [r2, r0]
 184 009c 9F31     		add	r1, r1, #159
 185 009e EFDA     		bge	.L356
 186              	.L2:
 187              	.LBE58:
 188              	.LBE59:
  56:../Sources/LineDetectionDouble.c **** 	carState->lineDistance = findLineDistance(imageDifferentialTwo, DISTANCE_DERIVATIVE_THRESHOLD, DIS
 189              		.loc 1 56 0
 190 00a0 0698     		ldr	r0, [sp, #24]
 191              	.LBB60:
 192              	.LBB61:
 390:../Sources/LineDetectionDouble.c **** 	for (uint8_t k = 0; k < 128 && detectedTransitions->numberOfTransitions < MAX_NUMBER_OF_TRANSITION
 193              		.loc 1 390 0
 194 00a2 8021     		mov	r1, #128
 195              	.LBE61:
 196              	.LBE60:
  56:../Sources/LineDetectionDouble.c **** 	carState->lineDistance = findLineDistance(imageDifferentialTwo, DISTANCE_DERIVATIVE_THRESHOLD, DIS
 197              		.loc 1 56 0
 198 00a4 0373     		strb	r3, [r0, #12]
 199              	.LVL11:
 200              	.LBB67:
 201              	.LBB62:
 390:../Sources/LineDetectionDouble.c **** 	for (uint8_t k = 0; k < 128 && detectedTransitions->numberOfTransitions < MAX_NUMBER_OF_TRANSITION
 202              		.loc 1 390 0
 203 00a6 4B00     		lsl	r3, r1, #1
 204 00a8 F35C     		ldrb	r3, [r6, r3]
 205 00aa 3F2B     		cmp	r3, #63
 206 00ac 00D9     		bls	.LCB145
 207 00ae 7AE0     		b	.L7	@long jump
 208              	.LCB145:
 395:../Sources/LineDetectionDouble.c **** 			detectedTransitions->transition[detectedTransitions->numberOfTransitions].direction = blackToWhi
 209              		.loc 1 395 0
 210 00b0 0020     		mov	r0, #0
 400:../Sources/LineDetectionDouble.c **** 		else if (derivative[k] <= -derivativeThreshold)
 211              		.loc 1 400 0
 212 00b2 AC49     		ldr	r1, .L395+32
 395:../Sources/LineDetectionDouble.c **** 			detectedTransitions->transition[detectedTransitions->numberOfTransitions].direction = blackToWhi
 213              		.loc 1 395 0
 214 00b4 8046     		mov	r8, r0
 392:../Sources/LineDetectionDouble.c **** 		if (derivative[k] >= derivativeThreshold)
 215              		.loc 1 392 0
 216 00b6 A948     		ldr	r0, .L395+24
 217 00b8 AB4A     		ldr	r2, .L395+36
 400:../Sources/LineDetectionDouble.c **** 		else if (derivative[k] <= -derivativeThreshold)
 218              		.loc 1 400 0
 219 00ba 8946     		mov	r9, r1
 220              	.LVL12:
 392:../Sources/LineDetectionDouble.c **** 		if (derivative[k] >= derivativeThreshold)
 221              		.loc 1 392 0
 222 00bc 0188     		ldrh	r1, [r0]
 223 00be 9446     		mov	ip, r2
 403:../Sources/LineDetectionDouble.c **** 			detectedTransitions->transition[detectedTransitions->numberOfTransitions].direction = whiteToBla
 224              		.loc 1 403 0
 225 00c0 0122     		mov	r2, #1
 226 00c2 9346     		mov	fp, r2
 392:../Sources/LineDetectionDouble.c **** 		if (derivative[k] >= derivativeThreshold)
 227              		.loc 1 392 0
 228 00c4 0AB2     		sxth	r2, r1
 229 00c6 6245     		cmp	r2, ip
 230 00c8 01DD     		ble	.LCB159
 231 00ca 00F047FC 		bl	.L357	@far jump
 232              	.LCB159:
 400:../Sources/LineDetectionDouble.c **** 		else if (derivative[k] <= -derivativeThreshold)
 233              		.loc 1 400 0
 234 00ce 4A45     		cmp	r2, r9
 235 00d0 0BDA     		bge	.L262
 402:../Sources/LineDetectionDouble.c **** 			detectedTransitions->transition[detectedTransitions->numberOfTransitions].position = k;
 236              		.loc 1 402 0
 237 00d2 9800     		lsl	r0, r3, #2
 238 00d4 8246     		mov	sl, r0
 239 00d6 4246     		mov	r2, r8
 403:../Sources/LineDetectionDouble.c **** 			detectedTransitions->transition[detectedTransitions->numberOfTransitions].direction = whiteToBla
 240              		.loc 1 403 0
 241 00d8 B244     		add	sl, sl, r6
 402:../Sources/LineDetectionDouble.c **** 			detectedTransitions->transition[detectedTransitions->numberOfTransitions].position = k;
 242              		.loc 1 402 0
 243 00da 3254     		strb	r2, [r6, r0]
 404:../Sources/LineDetectionDouble.c **** 			detectedTransitions->transition[detectedTransitions->numberOfTransitions].derivative = (-derivat
 244              		.loc 1 404 0
 245 00dc 4942     		neg	r1, r1
 403:../Sources/LineDetectionDouble.c **** 			detectedTransitions->transition[detectedTransitions->numberOfTransitions].direction = whiteToBla
 246              		.loc 1 403 0
 247 00de 5046     		mov	r0, sl
 248 00e0 5A46     		mov	r2, fp
 406:../Sources/LineDetectionDouble.c **** 			detectedTransitions->numberOfTransitions++;
 249              		.loc 1 406 0
 250 00e2 0133     		add	r3, r3, #1
 403:../Sources/LineDetectionDouble.c **** 			detectedTransitions->transition[detectedTransitions->numberOfTransitions].direction = whiteToBla
 251              		.loc 1 403 0
 252 00e4 4270     		strb	r2, [r0, #1]
 404:../Sources/LineDetectionDouble.c **** 			detectedTransitions->transition[detectedTransitions->numberOfTransitions].derivative = (-derivat
 253              		.loc 1 404 0
 254 00e6 4180     		strh	r1, [r0, #2]
 406:../Sources/LineDetectionDouble.c **** 			detectedTransitions->numberOfTransitions++;
 255              		.loc 1 406 0
 256 00e8 DBB2     		uxtb	r3, r3
 257              	.L262:
 258 00ea 9C4A     		ldr	r2, .L395+24
 390:../Sources/LineDetectionDouble.c **** 	for (uint8_t k = 0; k < 128 && detectedTransitions->numberOfTransitions < MAX_NUMBER_OF_TRANSITION
 259              		.loc 1 390 0
 260 00ec 0121     		mov	r1, #1
 261              	.LVL13:
 262 00ee 0232     		add	r2, r2, #2
 263 00f0 3F2B     		cmp	r3, #63
 264 00f2 55D8     		bhi	.L333
 265 00f4 0591     		str	r1, [sp, #20]
 266 00f6 38E0     		b	.L173
 267              	.LVL14:
 268              	.L358:
 394:../Sources/LineDetectionDouble.c **** 			detectedTransitions->transition[detectedTransitions->numberOfTransitions].position = k;
 269              		.loc 1 394 0
 270 00f8 9800     		lsl	r0, r3, #2
 271 00fa 8246     		mov	sl, r0
 272 00fc 1421     		mov	r1, #20
 273 00fe 6846     		mov	r0, sp
 274 0100 085C     		ldrb	r0, [r1, r0]
 275 0102 5146     		mov	r1, sl
 395:../Sources/LineDetectionDouble.c **** 			detectedTransitions->transition[detectedTransitions->numberOfTransitions].direction = blackToWhi
 276              		.loc 1 395 0
 277 0104 B244     		add	sl, sl, r6
 394:../Sources/LineDetectionDouble.c **** 			detectedTransitions->transition[detectedTransitions->numberOfTransitions].position = k;
 278              		.loc 1 394 0
 279 0106 7054     		strb	r0, [r6, r1]
 395:../Sources/LineDetectionDouble.c **** 			detectedTransitions->transition[detectedTransitions->numberOfTransitions].direction = blackToWhi
 280              		.loc 1 395 0
 281 0108 4046     		mov	r0, r8
 282 010a 5146     		mov	r1, sl
 283 010c 4870     		strb	r0, [r1, #1]
 396:../Sources/LineDetectionDouble.c **** 			detectedTransitions->transition[detectedTransitions->numberOfTransitions].derivative = derivativ
 284              		.loc 1 396 0
 285 010e 6946     		mov	r1, sp
 286 0110 1020     		mov	r0, #16
 287 0112 405A     		ldrh	r0, [r0, r1]
 398:../Sources/LineDetectionDouble.c **** 			detectedTransitions->numberOfTransitions++;
 288              		.loc 1 398 0
 289 0114 0133     		add	r3, r3, #1
 396:../Sources/LineDetectionDouble.c **** 			detectedTransitions->transition[detectedTransitions->numberOfTransitions].derivative = derivativ
 290              		.loc 1 396 0
 291 0116 5146     		mov	r1, sl
 292 0118 4880     		strh	r0, [r1, #2]
 398:../Sources/LineDetectionDouble.c **** 			detectedTransitions->numberOfTransitions++;
 293              		.loc 1 398 0
 294 011a DBB2     		uxtb	r3, r3
 295              	.L5:
 390:../Sources/LineDetectionDouble.c **** 	for (uint8_t k = 0; k < 128 && detectedTransitions->numberOfTransitions < MAX_NUMBER_OF_TRANSITION
 296              		.loc 1 390 0
 297 011c 0598     		ldr	r0, [sp, #20]
 298 011e 0130     		add	r0, r0, #1
 299 0120 C1B2     		uxtb	r1, r0
 300              	.LVL15:
 301 0122 8029     		cmp	r1, #128
 302 0124 3CD0     		beq	.L333
 303 0126 901C     		add	r0, r2, #2
 304 0128 0490     		str	r0, [sp, #16]
 305 012a 3F2B     		cmp	r3, #63
 306 012c 38D8     		bhi	.L333
 392:../Sources/LineDetectionDouble.c **** 		if (derivative[k] >= derivativeThreshold)
 307              		.loc 1 392 0
 308 012e 5288     		ldrh	r2, [r2, #2]
 309 0130 1420     		mov	r0, #20
 310 0132 0592     		str	r2, [sp, #20]
 311 0134 6A46     		mov	r2, sp
 312 0136 825E     		ldrsh	r2, [r0, r2]
 313 0138 6245     		cmp	r2, ip
 314 013a 01DC     		bgt	.LCB224
 315 013c 00F096FC 		bl	.L265	@far jump
 316              	.LCB224:
 394:../Sources/LineDetectionDouble.c **** 			detectedTransitions->transition[detectedTransitions->numberOfTransitions].position = k;
 317              		.loc 1 394 0
 318 0140 9A00     		lsl	r2, r3, #2
 319 0142 9246     		mov	sl, r2
 395:../Sources/LineDetectionDouble.c **** 			detectedTransitions->transition[detectedTransitions->numberOfTransitions].direction = blackToWhi
 320              		.loc 1 395 0
 321 0144 B244     		add	sl, sl, r6
 394:../Sources/LineDetectionDouble.c **** 			detectedTransitions->transition[detectedTransitions->numberOfTransitions].position = k;
 322              		.loc 1 394 0
 323 0146 B154     		strb	r1, [r6, r2]
 395:../Sources/LineDetectionDouble.c **** 			detectedTransitions->transition[detectedTransitions->numberOfTransitions].direction = blackToWhi
 324              		.loc 1 395 0
 325 0148 5046     		mov	r0, sl
 326 014a 4246     		mov	r2, r8
 327 014c 4270     		strb	r2, [r0, #1]
 396:../Sources/LineDetectionDouble.c **** 			detectedTransitions->transition[detectedTransitions->numberOfTransitions].derivative = derivativ
 328              		.loc 1 396 0
 329 014e 6846     		mov	r0, sp
 330 0150 1422     		mov	r2, #20
 331 0152 125A     		ldrh	r2, [r2, r0]
 398:../Sources/LineDetectionDouble.c **** 			detectedTransitions->numberOfTransitions++;
 332              		.loc 1 398 0
 333 0154 0133     		add	r3, r3, #1
 396:../Sources/LineDetectionDouble.c **** 			detectedTransitions->transition[detectedTransitions->numberOfTransitions].derivative = derivativ
 334              		.loc 1 396 0
 335 0156 5046     		mov	r0, sl
 336 0158 4280     		strh	r2, [r0, #2]
 398:../Sources/LineDetectionDouble.c **** 			detectedTransitions->numberOfTransitions++;
 337              		.loc 1 398 0
 338 015a DBB2     		uxtb	r3, r3
 339              	.L266:
 390:../Sources/LineDetectionDouble.c **** 	for (uint8_t k = 0; k < 128 && detectedTransitions->numberOfTransitions < MAX_NUMBER_OF_TRANSITION
 340              		.loc 1 390 0
 341 015c 0131     		add	r1, r1, #1
 342 015e 049A     		ldr	r2, [sp, #16]
 343 0160 C9B2     		uxtb	r1, r1
 344 0162 0591     		str	r1, [sp, #20]
 345 0164 0232     		add	r2, r2, #2
 346 0166 3F2B     		cmp	r3, #63
 347 0168 1AD8     		bhi	.L333
 348              	.LVL16:
 349              	.L173:
 392:../Sources/LineDetectionDouble.c **** 		if (derivative[k] >= derivativeThreshold)
 350              		.loc 1 392 0
 351 016a 1088     		ldrh	r0, [r2]
 352 016c 6946     		mov	r1, sp
 353 016e 0490     		str	r0, [sp, #16]
 354 0170 1020     		mov	r0, #16
 355 0172 415E     		ldrsh	r1, [r0, r1]
 356 0174 6145     		cmp	r1, ip
 357 0176 BFDC     		bgt	.L358
 400:../Sources/LineDetectionDouble.c **** 		else if (derivative[k] <= -derivativeThreshold)
 358              		.loc 1 400 0
 359 0178 4945     		cmp	r1, r9
 360 017a CFDA     		bge	.L5
 402:../Sources/LineDetectionDouble.c **** 			detectedTransitions->transition[detectedTransitions->numberOfTransitions].position = k;
 361              		.loc 1 402 0
 362 017c 9800     		lsl	r0, r3, #2
 363 017e 8246     		mov	sl, r0
 364 0180 1421     		mov	r1, #20
 365 0182 6846     		mov	r0, sp
 366 0184 085C     		ldrb	r0, [r1, r0]
 367 0186 5146     		mov	r1, sl
 403:../Sources/LineDetectionDouble.c **** 			detectedTransitions->transition[detectedTransitions->numberOfTransitions].direction = whiteToBla
 368              		.loc 1 403 0
 369 0188 B244     		add	sl, sl, r6
 402:../Sources/LineDetectionDouble.c **** 			detectedTransitions->transition[detectedTransitions->numberOfTransitions].position = k;
 370              		.loc 1 402 0
 371 018a 7054     		strb	r0, [r6, r1]
 403:../Sources/LineDetectionDouble.c **** 			detectedTransitions->transition[detectedTransitions->numberOfTransitions].direction = whiteToBla
 372              		.loc 1 403 0
 373 018c 5846     		mov	r0, fp
 374 018e 5146     		mov	r1, sl
 375 0190 4870     		strb	r0, [r1, #1]
 404:../Sources/LineDetectionDouble.c **** 			detectedTransitions->transition[detectedTransitions->numberOfTransitions].derivative = (-derivat
 376              		.loc 1 404 0
 377 0192 0498     		ldr	r0, [sp, #16]
 378 0194 5146     		mov	r1, sl
 379 0196 4042     		neg	r0, r0
 406:../Sources/LineDetectionDouble.c **** 			detectedTransitions->numberOfTransitions++;
 380              		.loc 1 406 0
 381 0198 0133     		add	r3, r3, #1
 404:../Sources/LineDetectionDouble.c **** 			detectedTransitions->transition[detectedTransitions->numberOfTransitions].derivative = (-derivat
 382              		.loc 1 404 0
 383 019a 4880     		strh	r0, [r1, #2]
 406:../Sources/LineDetectionDouble.c **** 			detectedTransitions->numberOfTransitions++;
 384              		.loc 1 406 0
 385 019c DBB2     		uxtb	r3, r3
 386 019e BDE7     		b	.L5
 387              	.L333:
 388 01a0 8020     		mov	r0, #128
 389 01a2 4100     		lsl	r1, r0, #1
 390 01a4 7354     		strb	r3, [r6, r1]
 391              	.L7:
 392              	.LVL17:
 393              	.LBE62:
 394              	.LBE67:
 395              	.LBB68:
 396              	.LBB69:
 390:../Sources/LineDetectionDouble.c **** 	for (uint8_t k = 0; k < 128 && detectedTransitions->numberOfTransitions < MAX_NUMBER_OF_TRANSITION
 397              		.loc 1 390 0
 398 01a6 8022     		mov	r2, #128
 399 01a8 5000     		lsl	r0, r2, #1
 400              	.LBE69:
 401              	.LBE68:
 402              	.LBB74:
 403              	.LBB63:
  59:../Sources/LineDetectionDouble.c **** 	findTransitions(&lineTransitionsStop, imageDifferential, DERIVATIVE_THRESHOLD_STOP);
 404              		.loc 1 59 0
 405 01aa 6C49     		ldr	r1, .L395+24
 406              	.LBE63:
 407              	.LBE74:
 408              	.LBB75:
 409              	.LBB70:
 390:../Sources/LineDetectionDouble.c **** 	for (uint8_t k = 0; k < 128 && detectedTransitions->numberOfTransitions < MAX_NUMBER_OF_TRANSITION
 410              		.loc 1 390 0
 411 01ac 3A5C     		ldrb	r2, [r7, r0]
 412              	.LBE70:
 413              	.LBE75:
 414              	.LBB76:
 415              	.LBB64:
  59:../Sources/LineDetectionDouble.c **** 	findTransitions(&lineTransitionsStop, imageDifferential, DERIVATIVE_THRESHOLD_STOP);
 416              		.loc 1 59 0
 417 01ae 8A46     		mov	sl, r1
 418              	.LBE64:
 419              	.LBE76:
 420              	.LBB77:
 421              	.LBB71:
 390:../Sources/LineDetectionDouble.c **** 	for (uint8_t k = 0; k < 128 && detectedTransitions->numberOfTransitions < MAX_NUMBER_OF_TRANSITION
 422              		.loc 1 390 0
 423 01b0 3F2A     		cmp	r2, #63
 424 01b2 78D8     		bhi	.L116
 395:../Sources/LineDetectionDouble.c **** 			detectedTransitions->transition[detectedTransitions->numberOfTransitions].direction = blackToWhi
 425              		.loc 1 395 0
 426 01b4 0020     		mov	r0, #0
 403:../Sources/LineDetectionDouble.c **** 			detectedTransitions->transition[detectedTransitions->numberOfTransitions].direction = whiteToBla
 427              		.loc 1 403 0
 428 01b6 0121     		mov	r1, #1
 395:../Sources/LineDetectionDouble.c **** 			detectedTransitions->transition[detectedTransitions->numberOfTransitions].direction = blackToWhi
 429              		.loc 1 395 0
 430 01b8 8046     		mov	r8, r0
 392:../Sources/LineDetectionDouble.c **** 		if (derivative[k] >= derivativeThreshold)
 431              		.loc 1 392 0
 432 01ba 5046     		mov	r0, sl
 403:../Sources/LineDetectionDouble.c **** 			detectedTransitions->transition[detectedTransitions->numberOfTransitions].direction = whiteToBla
 433              		.loc 1 403 0
 434 01bc 8946     		mov	r9, r1
 392:../Sources/LineDetectionDouble.c **** 		if (derivative[k] >= derivativeThreshold)
 435              		.loc 1 392 0
 436 01be 0188     		ldrh	r1, [r0]
 437 01c0 08B2     		sxth	r0, r1
 438 01c2 8B46     		mov	fp, r1
 439 01c4 6D28     		cmp	r0, #109
 440 01c6 00DD     		ble	.LCB323
 441 01c8 D4E3     		b	.L359	@long jump
 442              	.LCB323:
 400:../Sources/LineDetectionDouble.c **** 		else if (derivative[k] <= -derivativeThreshold)
 443              		.loc 1 400 0
 444 01ca 011C     		mov	r1, r0
 445 01cc 6D31     		add	r1, r1, #109
 446 01ce 0DDA     		bge	.L254
 402:../Sources/LineDetectionDouble.c **** 			detectedTransitions->transition[detectedTransitions->numberOfTransitions].position = k;
 447              		.loc 1 402 0
 448 01d0 9100     		lsl	r1, r2, #2
 449 01d2 8C46     		mov	ip, r1
 450 01d4 4046     		mov	r0, r8
 403:../Sources/LineDetectionDouble.c **** 			detectedTransitions->transition[detectedTransitions->numberOfTransitions].direction = whiteToBla
 451              		.loc 1 403 0
 452 01d6 BC44     		add	ip, ip, r7
 402:../Sources/LineDetectionDouble.c **** 			detectedTransitions->transition[detectedTransitions->numberOfTransitions].position = k;
 453              		.loc 1 402 0
 454 01d8 7854     		strb	r0, [r7, r1]
 403:../Sources/LineDetectionDouble.c **** 			detectedTransitions->transition[detectedTransitions->numberOfTransitions].direction = whiteToBla
 455              		.loc 1 403 0
 456 01da 4846     		mov	r0, r9
 457 01dc 6146     		mov	r1, ip
 458 01de 4870     		strb	r0, [r1, #1]
 404:../Sources/LineDetectionDouble.c **** 			detectedTransitions->transition[detectedTransitions->numberOfTransitions].derivative = (-derivat
 459              		.loc 1 404 0
 460 01e0 5846     		mov	r0, fp
 461 01e2 4042     		neg	r0, r0
 462 01e4 6146     		mov	r1, ip
 406:../Sources/LineDetectionDouble.c **** 			detectedTransitions->numberOfTransitions++;
 463              		.loc 1 406 0
 464 01e6 0132     		add	r2, r2, #1
 404:../Sources/LineDetectionDouble.c **** 			detectedTransitions->transition[detectedTransitions->numberOfTransitions].derivative = (-derivat
 465              		.loc 1 404 0
 466 01e8 4880     		strh	r0, [r1, #2]
 406:../Sources/LineDetectionDouble.c **** 			detectedTransitions->numberOfTransitions++;
 467              		.loc 1 406 0
 468 01ea D2B2     		uxtb	r2, r2
 469              	.L254:
 390:../Sources/LineDetectionDouble.c **** 	for (uint8_t k = 0; k < 128 && detectedTransitions->numberOfTransitions < MAX_NUMBER_OF_TRANSITION
 470              		.loc 1 390 0
 471 01ec 0120     		mov	r0, #1
 472              	.LVL18:
 473 01ee 5146     		mov	r1, sl
 474 01f0 0231     		add	r1, r1, #2
 475 01f2 9C46     		mov	ip, r3
 476 01f4 8346     		mov	fp, r0
 477 01f6 3F2A     		cmp	r2, #63
 478 01f8 38D9     		bls	.L172
 479 01fa 51E0     		b	.L332
 480              	.LVL19:
 481              	.L361:
 394:../Sources/LineDetectionDouble.c **** 			detectedTransitions->transition[detectedTransitions->numberOfTransitions].position = k;
 482              		.loc 1 394 0
 483 01fc 9000     		lsl	r0, r2, #2
 484 01fe 8246     		mov	sl, r0
 485 0200 5B46     		mov	r3, fp
 395:../Sources/LineDetectionDouble.c **** 			detectedTransitions->transition[detectedTransitions->numberOfTransitions].direction = blackToWhi
 486              		.loc 1 395 0
 487 0202 BA44     		add	sl, sl, r7
 394:../Sources/LineDetectionDouble.c **** 			detectedTransitions->transition[detectedTransitions->numberOfTransitions].position = k;
 488              		.loc 1 394 0
 489 0204 3B54     		strb	r3, [r7, r0]
 395:../Sources/LineDetectionDouble.c **** 			detectedTransitions->transition[detectedTransitions->numberOfTransitions].direction = blackToWhi
 490              		.loc 1 395 0
 491 0206 4346     		mov	r3, r8
 492 0208 5046     		mov	r0, sl
 493 020a 4370     		strb	r3, [r0, #1]
 396:../Sources/LineDetectionDouble.c **** 			detectedTransitions->transition[detectedTransitions->numberOfTransitions].derivative = derivativ
 494              		.loc 1 396 0
 495 020c 6846     		mov	r0, sp
 496 020e 1023     		mov	r3, #16
 497 0210 1B5A     		ldrh	r3, [r3, r0]
 398:../Sources/LineDetectionDouble.c **** 			detectedTransitions->numberOfTransitions++;
 498              		.loc 1 398 0
 499 0212 0132     		add	r2, r2, #1
 396:../Sources/LineDetectionDouble.c **** 			detectedTransitions->transition[detectedTransitions->numberOfTransitions].derivative = derivativ
 500              		.loc 1 396 0
 501 0214 5046     		mov	r0, sl
 502 0216 4380     		strh	r3, [r0, #2]
 398:../Sources/LineDetectionDouble.c **** 			detectedTransitions->numberOfTransitions++;
 503              		.loc 1 398 0
 504 0218 D2B2     		uxtb	r2, r2
 505              	.L10:
 390:../Sources/LineDetectionDouble.c **** 	for (uint8_t k = 0; k < 128 && detectedTransitions->numberOfTransitions < MAX_NUMBER_OF_TRANSITION
 506              		.loc 1 390 0
 507 021a 5B46     		mov	r3, fp
 508 021c 0133     		add	r3, r3, #1
 509 021e D8B2     		uxtb	r0, r3
 510              	.LVL20:
 511 0220 8028     		cmp	r0, #128
 512 0222 01D1     		bne	.LCB378
 513 0224 00F0A1FE 		bl	.L360	@far jump
 514              	.LCB378:
 515 0228 8B1C     		add	r3, r1, #2
 516 022a 9A46     		mov	sl, r3
 517 022c 3F2A     		cmp	r2, #63
 518 022e 36D8     		bhi	.L349
 392:../Sources/LineDetectionDouble.c **** 		if (derivative[k] >= derivativeThreshold)
 519              		.loc 1 392 0
 520 0230 4988     		ldrh	r1, [r1, #2]
 521 0232 6B46     		mov	r3, sp
 522 0234 0491     		str	r1, [sp, #16]
 523 0236 1033     		add	r3, r3, #16
 524 0238 0021     		mov	r1, #0
 525 023a 5B5E     		ldrsh	r3, [r3, r1]
 526 023c 6D2B     		cmp	r3, #109
 527 023e 01DC     		bgt	.LCB389
 528 0240 00F002FC 		bl	.L257	@far jump
 529              	.LCB389:
 394:../Sources/LineDetectionDouble.c **** 			detectedTransitions->transition[detectedTransitions->numberOfTransitions].position = k;
 530              		.loc 1 394 0
 531 0244 9100     		lsl	r1, r2, #2
 395:../Sources/LineDetectionDouble.c **** 			detectedTransitions->transition[detectedTransitions->numberOfTransitions].direction = blackToWhi
 532              		.loc 1 395 0
 533 0246 CB19     		add	r3, r1, r7
 394:../Sources/LineDetectionDouble.c **** 			detectedTransitions->transition[detectedTransitions->numberOfTransitions].position = k;
 534              		.loc 1 394 0
 535 0248 7854     		strb	r0, [r7, r1]
 395:../Sources/LineDetectionDouble.c **** 			detectedTransitions->transition[detectedTransitions->numberOfTransitions].direction = blackToWhi
 536              		.loc 1 395 0
 537 024a 4146     		mov	r1, r8
 538 024c 9B46     		mov	fp, r3
 539              	.LVL21:
 540 024e 5970     		strb	r1, [r3, #1]
 396:../Sources/LineDetectionDouble.c **** 			detectedTransitions->transition[detectedTransitions->numberOfTransitions].derivative = derivativ
 541              		.loc 1 396 0
 542 0250 6B46     		mov	r3, sp
 543 0252 1021     		mov	r1, #16
 544 0254 C95A     		ldrh	r1, [r1, r3]
 398:../Sources/LineDetectionDouble.c **** 			detectedTransitions->numberOfTransitions++;
 545              		.loc 1 398 0
 546 0256 0132     		add	r2, r2, #1
 396:../Sources/LineDetectionDouble.c **** 			detectedTransitions->transition[detectedTransitions->numberOfTransitions].derivative = derivativ
 547              		.loc 1 396 0
 548 0258 5B46     		mov	r3, fp
 549 025a 5980     		strh	r1, [r3, #2]
 398:../Sources/LineDetectionDouble.c **** 			detectedTransitions->numberOfTransitions++;
 550              		.loc 1 398 0
 551 025c D2B2     		uxtb	r2, r2
 552              	.L258:
 390:../Sources/LineDetectionDouble.c **** 	for (uint8_t k = 0; k < 128 && detectedTransitions->numberOfTransitions < MAX_NUMBER_OF_TRANSITION
 553              		.loc 1 390 0
 554 025e 0130     		add	r0, r0, #1
 555 0260 C0B2     		uxtb	r0, r0
 556 0262 5146     		mov	r1, sl
 557 0264 8346     		mov	fp, r0
 558              	.LVL22:
 559 0266 0231     		add	r1, r1, #2
 560 0268 3F2A     		cmp	r2, #63
 561 026a 18D8     		bhi	.L349
 562              	.LVL23:
 563              	.L172:
 392:../Sources/LineDetectionDouble.c **** 		if (derivative[k] >= derivativeThreshold)
 564              		.loc 1 392 0
 565 026c 0B88     		ldrh	r3, [r1]
 566 026e 6846     		mov	r0, sp
 567 0270 0493     		str	r3, [sp, #16]
 568 0272 1023     		mov	r3, #16
 569 0274 185E     		ldrsh	r0, [r3, r0]
 570 0276 6D28     		cmp	r0, #109
 571 0278 C0DC     		bgt	.L361
 400:../Sources/LineDetectionDouble.c **** 		else if (derivative[k] <= -derivativeThreshold)
 572              		.loc 1 400 0
 573 027a 031C     		mov	r3, r0
 574 027c 6D33     		add	r3, r3, #109
 575 027e CCDA     		bge	.L10
 402:../Sources/LineDetectionDouble.c **** 			detectedTransitions->transition[detectedTransitions->numberOfTransitions].position = k;
 576              		.loc 1 402 0
 577 0280 9300     		lsl	r3, r2, #2
 578 0282 9A46     		mov	sl, r3
 579 0284 5846     		mov	r0, fp
 403:../Sources/LineDetectionDouble.c **** 			detectedTransitions->transition[detectedTransitions->numberOfTransitions].direction = whiteToBla
 580              		.loc 1 403 0
 581 0286 BA44     		add	sl, sl, r7
 402:../Sources/LineDetectionDouble.c **** 			detectedTransitions->transition[detectedTransitions->numberOfTransitions].position = k;
 582              		.loc 1 402 0
 583 0288 F854     		strb	r0, [r7, r3]
 403:../Sources/LineDetectionDouble.c **** 			detectedTransitions->transition[detectedTransitions->numberOfTransitions].direction = whiteToBla
 584              		.loc 1 403 0
 585 028a 4846     		mov	r0, r9
 586 028c 5346     		mov	r3, sl
 587 028e 5870     		strb	r0, [r3, #1]
 404:../Sources/LineDetectionDouble.c **** 			detectedTransitions->transition[detectedTransitions->numberOfTransitions].derivative = (-derivat
 588              		.loc 1 404 0
 589 0290 0498     		ldr	r0, [sp, #16]
 590 0292 5346     		mov	r3, sl
 591 0294 4042     		neg	r0, r0
 406:../Sources/LineDetectionDouble.c **** 			detectedTransitions->numberOfTransitions++;
 592              		.loc 1 406 0
 593 0296 0132     		add	r2, r2, #1
 404:../Sources/LineDetectionDouble.c **** 			detectedTransitions->transition[detectedTransitions->numberOfTransitions].derivative = (-derivat
 594              		.loc 1 404 0
 595 0298 5880     		strh	r0, [r3, #2]
 406:../Sources/LineDetectionDouble.c **** 			detectedTransitions->numberOfTransitions++;
 596              		.loc 1 406 0
 597 029a D2B2     		uxtb	r2, r2
 598 029c BDE7     		b	.L10
 599              	.L349:
 600 029e 6346     		mov	r3, ip
 601              	.L332:
 602 02a0 8020     		mov	r0, #128
 603 02a2 4100     		lsl	r1, r0, #1
 604 02a4 7A54     		strb	r2, [r7, r1]
 605              	.L116:
 606              	.LBE71:
 607              	.LBE77:
 608              	.LBB78:
 609              	.LBB79:
 422:../Sources/LineDetectionDouble.c **** 		{
 423:../Sources/LineDetectionDouble.c **** 			return k;
 424:../Sources/LineDetectionDouble.c **** 		}
 425:../Sources/LineDetectionDouble.c **** 	}
 426:../Sources/LineDetectionDouble.c **** 	
 427:../Sources/LineDetectionDouble.c **** 	return STRAIGHT_DISTANCE_DEFAULT;	// Returns this if no distance edge in the interval [5 : MAX) de
 428:../Sources/LineDetectionDouble.c **** }
 429:../Sources/LineDetectionDouble.c **** #endif
 430:../Sources/LineDetectionDouble.c **** 
 431:../Sources/LineDetectionDouble.c **** int8_t transitionsToLines(struct detectedLines_s* detectedLines, struct detectedTransitions_s* dete
 432:../Sources/LineDetectionDouble.c **** {
 433:../Sources/LineDetectionDouble.c **** 	//Start from first white to black transition and look for pairs, store starts and ends
 434:../Sources/LineDetectionDouble.c **** 	for (uint8_t k = 0; k < detectedTransitions->numberOfTransitions && detectedLines->numberOfLines <
 610              		.loc 1 434 0
 611 02a6 2949     		ldr	r1, .L395+8
 612 02a8 A020     		mov	r0, #160
 613 02aa 8000     		lsl	r0, r0, #2
 614 02ac 085C     		ldrb	r0, [r1, r0]
 615 02ae 0021     		mov	r1, #0
 616 02b0 8846     		mov	r8, r1
 435:../Sources/LineDetectionDouble.c **** 	{
 436:../Sources/LineDetectionDouble.c **** 		if (detectedTransitions->transition[k].direction == whiteToBlack)
 437:../Sources/LineDetectionDouble.c **** 		{
 438:../Sources/LineDetectionDouble.c **** 			detectedLines->line[detectedLines->numberOfLines].start = detectedTransitions->transition[k].pos
 617              		.loc 1 438 0
 618 02b2 2649     		ldr	r1, .L395+8
 436:../Sources/LineDetectionDouble.c **** 		if (detectedTransitions->transition[k].direction == whiteToBlack)
 619              		.loc 1 436 0
 620 02b4 B946     		mov	r9, r7
 621              		.loc 1 438 0
 622 02b6 0491     		str	r1, [sp, #16]
 434:../Sources/LineDetectionDouble.c **** 	for (uint8_t k = 0; k < detectedTransitions->numberOfTransitions && detectedLines->numberOfLines <
 623              		.loc 1 434 0
 624 02b8 1F28     		cmp	r0, #31
 625 02ba 34D8     		bhi	.L12
 626 02bc 0792     		str	r2, [sp, #28]
 627 02be 0890     		str	r0, [sp, #32]
 628 02c0 4146     		mov	r1, r8
 629 02c2 9B46     		mov	fp, r3
 630 02c4 09E0     		b	.L171
 631              	.L363:
 632 02c6 0131     		add	r1, r1, #1
 633 02c8 C9B2     		uxtb	r1, r1
 634              	.L17:
 635              	.LVL24:
 636 02ca 079B     		ldr	r3, [sp, #28]
 637 02cc 9942     		cmp	r1, r3
 638 02ce 24D2     		bcs	.L18
 639 02d0 0898     		ldr	r0, [sp, #32]
 640 02d2 1F28     		cmp	r0, #31
 641 02d4 01D9     		bls	.LCB485
 642 02d6 00F08EFC 		bl	.L362	@far jump
 643              	.LCB485:
 644              	.LVL25:
 645              	.L171:
 436:../Sources/LineDetectionDouble.c **** 		if (detectedTransitions->transition[k].direction == whiteToBlack)
 646              		.loc 1 436 0
 647 02da 8B00     		lsl	r3, r1, #2
 648 02dc FA18     		add	r2, r7, r3
 649 02de 5078     		ldrb	r0, [r2, #1]
 650 02e0 0128     		cmp	r0, #1
 651 02e2 F0D1     		bne	.L363
 652              		.loc 1 438 0
 653 02e4 089A     		ldr	r2, [sp, #32]
 439:../Sources/LineDetectionDouble.c **** 			k++;
 440:../Sources/LineDetectionDouble.c **** 			if (detectedTransitions->transition[k].direction == blackToWhite && k < detectedTransitions->num
 654              		.loc 1 440 0
 655 02e6 CA46     		mov	sl, r9
 438:../Sources/LineDetectionDouble.c **** 			detectedLines->line[detectedLines->numberOfLines].start = detectedTransitions->transition[k].pos
 656              		.loc 1 438 0
 657 02e8 9000     		lsl	r0, r2, #2
 658 02ea 089A     		ldr	r2, [sp, #32]
 659 02ec 8446     		mov	ip, r0
 660 02ee 9444     		add	ip, ip, r2
 661 02f0 4A46     		mov	r2, r9
 662 02f2 9B5C     		ldrb	r3, [r3, r2]
 663 02f4 6046     		mov	r0, ip
 664 02f6 154A     		ldr	r2, .L395+8
 665 02f8 8000     		lsl	r0, r0, #2
 666 02fa 1354     		strb	r3, [r2, r0]
 667 02fc 8446     		mov	ip, r0
 439:../Sources/LineDetectionDouble.c **** 			k++;
 668              		.loc 1 439 0
 669 02fe 481C     		add	r0, r1, #1
 670 0300 C3B2     		uxtb	r3, r0
 671              	.LVL26:
 672              		.loc 1 440 0
 673 0302 9A00     		lsl	r2, r3, #2
 674 0304 9046     		mov	r8, r2
 675 0306 C244     		add	sl, sl, r8
 676 0308 5046     		mov	r0, sl
 677              	.LVL27:
 678 030a 4278     		ldrb	r2, [r0, #1]
 679 030c 002A     		cmp	r2, #0
 680 030e 00D0     		beq	.LCB516
 681 0310 A8E0     		b	.L118	@long jump
 682              	.LCB516:
 683 0312 0798     		ldr	r0, [sp, #28]
 684 0314 8342     		cmp	r3, r0
 685 0316 00D2     		bcs	.LCB519
 686 0318 81E0     		b	.L364	@long jump
 687              	.LCB519:
 688              	.LVL28:
 689              	.L18:
 690 031a 0899     		ldr	r1, [sp, #32]
 691              	.L350:
 692 031c A027     		mov	r7, #160
 693 031e 0B48     		ldr	r0, .L395+8
 694 0320 BA00     		lsl	r2, r7, #2
 695 0322 5B46     		mov	r3, fp
 696 0324 8154     		strb	r1, [r0, r2]
 697              	.L12:
 698              	.LVL29:
 699              	.LBE79:
 700              	.LBE78:
 701              	.LBB82:
 702              	.LBB83:
 441:../Sources/LineDetectionDouble.c **** 			{
 442:../Sources/LineDetectionDouble.c **** 				detectedLines->line[detectedLines->numberOfLines].end = detectedTransitions->transition[k].posi
 443:../Sources/LineDetectionDouble.c **** 				detectedLines->line[detectedLines->numberOfLines].width = detectedLines->line[detectedLines->nu
 444:../Sources/LineDetectionDouble.c **** 						- detectedLines->line[detectedLines->numberOfLines].start;
 445:../Sources/LineDetectionDouble.c **** 				detectedLines->line[detectedLines->numberOfLines].center = detectedLines->line[detectedLines->n
 446:../Sources/LineDetectionDouble.c **** 						+ ((detectedLines->line[detectedLines->numberOfLines].width) / 2) - 64;
 447:../Sources/LineDetectionDouble.c **** 				//Successfully found a line
 448:../Sources/LineDetectionDouble.c **** 				//TERMINAL_PRINTF("Start: %i, end: %i ", detectedLines->line[detectedLines->numberOfLines].star
 449:../Sources/LineDetectionDouble.c **** 				detectedLines->numberOfLines++;
 450:../Sources/LineDetectionDouble.c **** 			}
 451:../Sources/LineDetectionDouble.c **** 			else
 452:../Sources/LineDetectionDouble.c **** 			{
 453:../Sources/LineDetectionDouble.c **** 				//Found a second line start
 454:../Sources/LineDetectionDouble.c **** 				k--;
 455:../Sources/LineDetectionDouble.c **** 			}
 456:../Sources/LineDetectionDouble.c **** 		}
 457:../Sources/LineDetectionDouble.c **** 	}
 458:../Sources/LineDetectionDouble.c **** 	//TERMINAL_PRINTF("\n");
 459:../Sources/LineDetectionDouble.c **** 	return 0;
 460:../Sources/LineDetectionDouble.c **** }
 461:../Sources/LineDetectionDouble.c **** 
 462:../Sources/LineDetectionDouble.c **** void transitionsToTracks(struct detectedTracks_s* detectedTracks, struct detectedTransitions_s* det
 463:../Sources/LineDetectionDouble.c **** {
 464:../Sources/LineDetectionDouble.c **** 	//Start from first black to white transition and look for pairs, store starts and ends
 465:../Sources/LineDetectionDouble.c **** 	for (uint8_t k = 0; k < detectedTransitions->numberOfTransitions && detectedTracks->numberOfTracks
 703              		.loc 1 465 0
 704 0326 002B     		cmp	r3, #0
 705 0328 00D1     		bne	.LCB538
 706 032a D4E0     		b	.L20	@long jump
 707              	.LCB538:
 708 032c 8021     		mov	r1, #128
 709 032e 8F00     		lsl	r7, r1, #2
 710 0330 EA5D     		ldrb	r2, [r5, r7]
 711 0332 701C     		add	r0, r6, #1
 712 0334 8446     		mov	ip, r0
 713 0336 0121     		mov	r1, #1
 714 0338 632A     		cmp	r2, #99
 715 033a 00D9     		bls	.LCB546
 716 033c 4DE2     		b	.L22	@long jump
 717              	.LCB546:
 718 033e 9846     		mov	r8, r3
 719 0340 0B1C     		mov	r3, r1
 720 0342 1DE0     		b	.L29
 721              	.L396:
 722              		.align	2
 723              	.L395:
 724 0344 00000000 		.word	.LANCHOR0
 725 0348 00000000 		.word	.LANCHOR1
 726 034c 00000000 		.word	.LANCHOR2
 727 0350 00000000 		.word	.LANCHOR4
 728 0354 00000000 		.word	.LANCHOR3
 729 0358 02020000 		.word	514
 730 035c 00000000 		.word	.LANCHOR5
 731 0360 00000000 		.word	.LANCHOR6
 732 0364 A3FEFFFF 		.word	-349
 733 0368 5D010000 		.word	349
 734              	.LVL30:
 735              	.L365:
 736 036c 9845     		cmp	r8, r3
 737 036e 00D8     		bhi	.LCB571
 738 0370 2FE2     		b	.L337	@long jump
 739              	.LCB571:
 740              	.LVL31:
 741              	.L24:
 742 0372 0427     		mov	r7, #4
 743 0374 0133     		add	r3, r3, #1
 744 0376 BC44     		add	ip, ip, r7
 745 0378 DBB2     		uxtb	r3, r3
 746 037a 632A     		cmp	r2, #99
 747 037c 00D9     		bls	.LCB579
 748 037e 28E2     		b	.L337	@long jump
 749              	.LCB579:
 750              	.L29:
 466:../Sources/LineDetectionDouble.c **** 	{
 467:../Sources/LineDetectionDouble.c **** 		if (detectedTransitions->transition[k].direction == blackToWhite)
 751              		.loc 1 467 0
 752 0380 6746     		mov	r7, ip
 753 0382 3878     		ldrb	r0, [r7]
 754 0384 0028     		cmp	r0, #0
 755 0386 F1D1     		bne	.L365
  28:../Sources/LineDetectionDouble.c **** void findLine(volatile uint16_t* lineScanImage, volatile uint16_t* lineScanImage1, carState_s* carS
 756              		.loc 1 28 0
 757 0388 6146     		mov	r1, ip
 758 038a 0139     		sub	r1, r1, #1
 468:../Sources/LineDetectionDouble.c **** 		{
 469:../Sources/LineDetectionDouble.c **** 			detectedTracks->track[detectedTracks->numberOfTracks].start = detectedTransitions->transition[k]
 759              		.loc 1 469 0
 760 038c 0F78     		ldrb	r7, [r1]
 761 038e 1001     		lsl	r0, r2, #4
 762 0390 2F54     		strb	r7, [r5, r0]
 763              	.LVL32:
 764              	.LBB84:
 470:../Sources/LineDetectionDouble.c **** 
 471:../Sources/LineDetectionDouble.c **** 			for (uint8_t j = k+1; j < detectedTransitions->numberOfTransitions && detectedTracks->numberOfTr
 765              		.loc 1 471 0
 766 0392 9845     		cmp	r8, r3
 767 0394 00D8     		bhi	.LCB593
 768 0396 1CE2     		b	.L337	@long jump
 769              	.LCB593:
 770 0398 632A     		cmp	r2, #99
 771 039a EAD8     		bhi	.L24
 772 039c DF43     		mvn	r7, r3
 773 039e B946     		mov	r9, r7
 774 03a0 C144     		add	r9, r9, r8
 775 03a2 4F46     		mov	r7, r9
 776 03a4 191C     		mov	r1, r3
 777 03a6 FF07     		lsl	r7, r7, #31
 778 03a8 18D5     		bpl	.L28
 472:../Sources/LineDetectionDouble.c **** 			{
 473:../Sources/LineDetectionDouble.c **** 				if (detectedTransitions->transition[j].direction == whiteToBlack)
 779              		.loc 1 473 0
 780 03aa 9900     		lsl	r1, r3, #2
 781 03ac 7718     		add	r7, r6, r1
 782 03ae 7F78     		ldrb	r7, [r7, #1]
 783 03b0 012F     		cmp	r7, #1
 784 03b2 74D0     		beq	.L366
 785              	.L247:
 471:../Sources/LineDetectionDouble.c **** 			for (uint8_t j = k+1; j < detectedTransitions->numberOfTransitions && detectedTracks->numberOfTr
 786              		.loc 1 471 0
 787 03b4 591C     		add	r1, r3, #1
 788 03b6 C9B2     		uxtb	r1, r1
 789              	.LVL33:
 790 03b8 4145     		cmp	r1, r8
 791 03ba 0DD3     		bcc	.L351
 792 03bc D9E7     		b	.L24
 793              	.LVL34:
 794              	.L27:
 795 03be 0131     		add	r1, r1, #1
 796 03c0 C9B2     		uxtb	r1, r1
 797 03c2 4145     		cmp	r1, r8
 798 03c4 D5D2     		bcs	.L24
 799 03c6 632A     		cmp	r2, #99
 800 03c8 D3D8     		bhi	.L24
 801              		.loc 1 473 0
 802 03ca 8800     		lsl	r0, r1, #2
 803 03cc 3718     		add	r7, r6, r0
 804 03ce 7F78     		ldrb	r7, [r7, #1]
 805 03d0 012F     		cmp	r7, #1
 806 03d2 49D0     		beq	.L367
 807              	.L250:
 471:../Sources/LineDetectionDouble.c **** 			for (uint8_t j = k+1; j < detectedTransitions->numberOfTransitions && detectedTracks->numberOfTr
 808              		.loc 1 471 0
 809 03d4 0131     		add	r1, r1, #1
 810 03d6 C9B2     		uxtb	r1, r1
 811              	.L351:
 812              	.LVL35:
 813 03d8 632A     		cmp	r2, #99
 814 03da CAD8     		bhi	.L24
 815              	.LVL36:
 816              	.L28:
 817              		.loc 1 473 0
 818 03dc 8800     		lsl	r0, r1, #2
 819 03de 3718     		add	r7, r6, r0
 820 03e0 7F78     		ldrb	r7, [r7, #1]
 821 03e2 012F     		cmp	r7, #1
 822 03e4 EBD1     		bne	.L27
 474:../Sources/LineDetectionDouble.c **** 				{
 475:../Sources/LineDetectionDouble.c **** 					detectedTracks->track[detectedTracks->numberOfTracks].end = detectedTransitions->transition[j]
 823              		.loc 1 475 0
 824 03e6 805D     		ldrb	r0, [r0, r6]
 825 03e8 1701     		lsl	r7, r2, #4
 826 03ea 8246     		mov	sl, r0
 827 03ec BB46     		mov	fp, r7
 828 03ee E819     		add	r0, r5, r7
 829 03f0 5746     		mov	r7, sl
 830 03f2 0490     		str	r0, [sp, #16]
 831 03f4 4770     		strb	r7, [r0, #1]
 476:../Sources/LineDetectionDouble.c **** 					detectedTracks->track[detectedTracks->numberOfTracks].width = detectedTracks->track[detectedTr
 832              		.loc 1 476 0
 833 03f6 5846     		mov	r0, fp
 834 03f8 285C     		ldrb	r0, [r5, r0]
 835 03fa 5746     		mov	r7, sl
 836 03fc 381A     		sub	r0, r7, r0
 837 03fe 049F     		ldr	r7, [sp, #16]
 838 0400 C0B2     		uxtb	r0, r0
 839 0402 8146     		mov	r9, r0
 840 0404 B870     		strb	r0, [r7, #2]
 477:../Sources/LineDetectionDouble.c **** 							- detectedTracks->track[detectedTracks->numberOfTracks].start;
 478:../Sources/LineDetectionDouble.c **** 					detectedTracks->track[detectedTracks->numberOfTracks].center = detectedTracks->track[detectedT
 841              		.loc 1 478 0
 842 0406 5846     		mov	r0, fp
 843 0408 2F5C     		ldrb	r7, [r5, r0]
 844 040a 4846     		mov	r0, r9
 845 040c 3D3F     		sub	r7, r7, #61
 846 040e BA46     		mov	sl, r7
 847 0410 4708     		lsr	r7, r0, #1
 848 0412 0498     		ldr	r0, [sp, #16]
 849 0414 5744     		add	r7, r7, sl
 479:../Sources/LineDetectionDouble.c **** 							+ ((detectedTracks->track[detectedTracks->numberOfTracks].width) / 2) - 64 - CAMERA_CENTER_O
 480:../Sources/LineDetectionDouble.c **** 
 481:../Sources/LineDetectionDouble.c **** 					detectedTracks->numberOfTracks++;
 850              		.loc 1 481 0
 851 0416 0132     		add	r2, r2, #1
 478:../Sources/LineDetectionDouble.c **** 					detectedTracks->track[detectedTracks->numberOfTracks].center = detectedTracks->track[detectedT
 852              		.loc 1 478 0
 853 0418 C770     		strb	r7, [r0, #3]
 854              		.loc 1 481 0
 855 041a D2B2     		uxtb	r2, r2
 856 041c CFE7     		b	.L27
 857              	.LVL37:
 858              	.L364:
 859              	.LBE84:
 860              	.LBE83:
 861              	.LBE82:
 862              	.LBB89:
 863              	.LBB80:
 442:../Sources/LineDetectionDouble.c **** 				detectedLines->line[detectedLines->numberOfLines].end = detectedTransitions->transition[k].posi
 864              		.loc 1 442 0
 865 041e 049A     		ldr	r2, [sp, #16]
 866 0420 5346     		mov	r3, sl
 867              	.LVL38:
 868 0422 1B78     		ldrb	r3, [r3]
 869 0424 101C     		mov	r0, r2
 870 0426 6044     		add	r0, r0, ip
 871 0428 4370     		strb	r3, [r0, #1]
 872 042a 9846     		mov	r8, r3
 443:../Sources/LineDetectionDouble.c **** 				detectedLines->line[detectedLines->numberOfLines].width = detectedLines->line[detectedLines->nu
 873              		.loc 1 443 0
 874 042c 131C     		mov	r3, r2
 875 042e 6246     		mov	r2, ip
 876 0430 9B5C     		ldrb	r3, [r3, r2]
 877 0432 4246     		mov	r2, r8
 878 0434 D31A     		sub	r3, r2, r3
 879 0436 DAB2     		uxtb	r2, r3
 880 0438 8270     		strb	r2, [r0, #2]
 881 043a 9246     		mov	sl, r2
 445:../Sources/LineDetectionDouble.c **** 				detectedLines->line[detectedLines->numberOfLines].center = detectedLines->line[detectedLines->n
 882              		.loc 1 445 0
 883 043c 049A     		ldr	r2, [sp, #16]
 884 043e 6346     		mov	r3, ip
 885 0440 D25C     		ldrb	r2, [r2, r3]
 886 0442 4023     		mov	r3, #64
 887 0444 9446     		mov	ip, r2
 888 0446 5A42     		neg	r2, r3
 889 0448 5346     		mov	r3, sl
 890 044a 9444     		add	ip, ip, r2
 891 044c 5A08     		lsr	r2, r3, #1
 892 044e 9046     		mov	r8, r2
 893 0450 E044     		add	r8, r8, ip
 894 0452 4346     		mov	r3, r8
 895 0454 C370     		strb	r3, [r0, #3]
 449:../Sources/LineDetectionDouble.c **** 				detectedLines->numberOfLines++;
 896              		.loc 1 449 0
 897 0456 0898     		ldr	r0, [sp, #32]
 898 0458 0231     		add	r1, r1, #2
 899              	.LVL39:
 900 045a 0130     		add	r0, r0, #1
 901 045c C2B2     		uxtb	r2, r0
 902 045e 0892     		str	r2, [sp, #32]
 903 0460 C9B2     		uxtb	r1, r1
 904              	.LVL40:
 905 0462 32E7     		b	.L17
 906              	.LVL41:
 907              	.L118:
 439:../Sources/LineDetectionDouble.c **** 			k++;
 908              		.loc 1 439 0
 909 0464 191C     		mov	r1, r3
 910 0466 30E7     		b	.L17
 911              	.LVL42:
 912              	.L367:
 913              	.LBE80:
 914              	.LBE89:
 915              	.LBB90:
 916              	.LBB87:
 917              	.LBB85:
 475:../Sources/LineDetectionDouble.c **** 					detectedTracks->track[detectedTracks->numberOfTracks].end = detectedTransitions->transition[j]
 918              		.loc 1 475 0
 919 0468 805D     		ldrb	r0, [r0, r6]
 920 046a 1701     		lsl	r7, r2, #4
 921 046c BB46     		mov	fp, r7
 922 046e EF19     		add	r7, r5, r7
 923 0470 0497     		str	r7, [sp, #16]
 924 0472 7870     		strb	r0, [r7, #1]
 925 0474 8246     		mov	sl, r0
 476:../Sources/LineDetectionDouble.c **** 					detectedTracks->track[detectedTracks->numberOfTracks].width = detectedTracks->track[detectedTr
 926              		.loc 1 476 0
 927 0476 5846     		mov	r0, fp
 928 0478 285C     		ldrb	r0, [r5, r0]
 929 047a 5746     		mov	r7, sl
 930 047c 381A     		sub	r0, r7, r0
 931 047e 049F     		ldr	r7, [sp, #16]
 932 0480 C0B2     		uxtb	r0, r0
 933 0482 8146     		mov	r9, r0
 934 0484 B870     		strb	r0, [r7, #2]
 478:../Sources/LineDetectionDouble.c **** 					detectedTracks->track[detectedTracks->numberOfTracks].center = detectedTracks->track[detectedT
 935              		.loc 1 478 0
 936 0486 5846     		mov	r0, fp
 937 0488 2F5C     		ldrb	r7, [r5, r0]
 938 048a 4846     		mov	r0, r9
 939 048c 3D3F     		sub	r7, r7, #61
 940 048e BA46     		mov	sl, r7
 941 0490 4708     		lsr	r7, r0, #1
 942 0492 0498     		ldr	r0, [sp, #16]
 943 0494 5744     		add	r7, r7, sl
 944              		.loc 1 481 0
 945 0496 0132     		add	r2, r2, #1
 478:../Sources/LineDetectionDouble.c **** 					detectedTracks->track[detectedTracks->numberOfTracks].center = detectedTracks->track[detectedT
 946              		.loc 1 478 0
 947 0498 C770     		strb	r7, [r0, #3]
 948              		.loc 1 481 0
 949 049a D2B2     		uxtb	r2, r2
 950 049c 9AE7     		b	.L250
 951              	.LVL43:
 952              	.L366:
 475:../Sources/LineDetectionDouble.c **** 					detectedTracks->track[detectedTracks->numberOfTracks].end = detectedTransitions->transition[j]
 953              		.loc 1 475 0
 954 049e 895D     		ldrb	r1, [r1, r6]
 955 04a0 2F18     		add	r7, r5, r0
 956 04a2 7970     		strb	r1, [r7, #1]
 957 04a4 8A46     		mov	sl, r1
 476:../Sources/LineDetectionDouble.c **** 					detectedTracks->track[detectedTracks->numberOfTracks].width = detectedTracks->track[detectedTr
 958              		.loc 1 476 0
 959 04a6 295C     		ldrb	r1, [r5, r0]
 475:../Sources/LineDetectionDouble.c **** 					detectedTracks->track[detectedTracks->numberOfTracks].end = detectedTransitions->transition[j]
 960              		.loc 1 475 0
 961 04a8 BB46     		mov	fp, r7
 476:../Sources/LineDetectionDouble.c **** 					detectedTracks->track[detectedTracks->numberOfTracks].width = detectedTracks->track[detectedTr
 962              		.loc 1 476 0
 963 04aa 5746     		mov	r7, sl
 964 04ac 791A     		sub	r1, r7, r1
 965 04ae CFB2     		uxtb	r7, r1
 966 04b0 5946     		mov	r1, fp
 967 04b2 8F70     		strb	r7, [r1, #2]
 478:../Sources/LineDetectionDouble.c **** 					detectedTracks->track[detectedTracks->numberOfTracks].center = detectedTracks->track[detectedT
 968              		.loc 1 478 0
 969 04b4 285C     		ldrb	r0, [r5, r0]
 970 04b6 7F08     		lsr	r7, r7, #1
 971 04b8 3D38     		sub	r0, r0, #61
 972 04ba C019     		add	r0, r0, r7
 973              		.loc 1 481 0
 974 04bc 0132     		add	r2, r2, #1
 478:../Sources/LineDetectionDouble.c **** 					detectedTracks->track[detectedTracks->numberOfTracks].center = detectedTracks->track[detectedT
 975              		.loc 1 478 0
 976 04be C870     		strb	r0, [r1, #3]
 977              		.loc 1 481 0
 978 04c0 D2B2     		uxtb	r2, r2
 979 04c2 77E7     		b	.L247
 980              	.LVL44:
 981              	.L35:
 982 04c4 D44B     		ldr	r3, .L397
 983 04c6 8126     		mov	r6, #129
 984 04c8 E052     		strh	r0, [r4, r3]
 985 04ca 8020     		mov	r0, #128
 986 04cc 8700     		lsl	r7, r0, #2
 987 04ce E155     		strb	r1, [r4, r7]
 988 04d0 4A46     		mov	r2, r9
 989 04d2 B100     		lsl	r1, r6, #2
 990 04d4 6252     		strh	r2, [r4, r1]
 991              	.L20:
 992              	.LBE85:
 993              	.LBE87:
 994              	.LBE90:
  65:../Sources/LineDetectionDouble.c **** 	if(cross_section_enable == 1)
 995              		.loc 1 65 0
 996 04d6 D14E     		ldr	r6, .L397+4
 997 04d8 3278     		ldrb	r2, [r6]
 998 04da 012A     		cmp	r2, #1
 999 04dc 00D1     		bne	.LCB816
 1000 04de 1CE2     		b	.L368	@long jump
 1001              	.LCB816:
 1002              	.L37:
  74:../Sources/LineDetectionDouble.c **** 	if(carState->carMode == NORMAL_MODE
 1003              		.loc 1 74 0
 1004 04e0 069F     		ldr	r7, [sp, #24]
 1005 04e2 3B7A     		ldrb	r3, [r7, #8]
 1006 04e4 002B     		cmp	r3, #0
 1007 04e6 00D0     		beq	.LCB821
 1008 04e8 47E3     		b	.L38	@long jump
 1009              	.LCB821:
  75:../Sources/LineDetectionDouble.c **** 			&& carState->lineDistance > STRAIGHT_DISTANCE_THRESHOLD
 1010              		.loc 1 75 0
 1011 04ea 3B7B     		ldrb	r3, [r7, #12]
 1012 04ec 512B     		cmp	r3, #81
 1013 04ee 00D9     		bls	.LCB824
 1014 04f0 9DE2     		b	.L369	@long jump
 1015              	.LCB824:
 1016              	.L39:
  89:../Sources/LineDetectionDouble.c **** 	if (detectedTracks.numberOfTracks == 0 && detectedDoubleLines.numberOfLines == 0)
 1017              		.loc 1 89 0
 1018 04f2 8027     		mov	r7, #128
 1019 04f4 BF00     		lsl	r7, r7, #2
 1020 04f6 EE5D     		ldrb	r6, [r5, r7]
 1021 04f8 002E     		cmp	r6, #0
 1022 04fa 00D0     		beq	.LCB830
 1023 04fc 4EE3     		b	.L119	@long jump
 1024              	.LCB830:
 1025              	.L385:
  89:../Sources/LineDetectionDouble.c **** 	if (detectedTracks.numberOfTracks == 0 && detectedDoubleLines.numberOfLines == 0)
 1026              		.loc 1 89 0 is_stmt 0
 1027 04fe E75D     		ldrb	r7, [r4, r7]
 1028 0500 002F     		cmp	r7, #0
 1029 0502 00D1     		bne	.LCB834
 1030 0504 52E2     		b	.L370	@long jump
 1031              	.LCB834:
 1032              	.L42:
 1033              	.LBB91:
 1034              	.LBB92:
 482:../Sources/LineDetectionDouble.c **** 				}
 483:../Sources/LineDetectionDouble.c **** 			}
 484:../Sources/LineDetectionDouble.c **** 		}
 485:../Sources/LineDetectionDouble.c **** 	}
 486:../Sources/LineDetectionDouble.c **** //	TERMINAL_PRINTF("\n");
 487:../Sources/LineDetectionDouble.c **** }
 488:../Sources/LineDetectionDouble.c **** 
 489:../Sources/LineDetectionDouble.c **** void transitionsToDoubleLines(struct detectedDoubleLines_s* detectedDoubleLines, struct detectedTra
 490:../Sources/LineDetectionDouble.c **** {
 491:../Sources/LineDetectionDouble.c **** 	for (uint8_t k = 0; k < detectedTransitions->numberOfTransitions && detectedDoubleLines->numberOfL
 492:../Sources/LineDetectionDouble.c **** 	{
 493:../Sources/LineDetectionDouble.c **** 		if (detectedTransitions->transition[k].direction == blackToWhite)
 494:../Sources/LineDetectionDouble.c **** 		{
 495:../Sources/LineDetectionDouble.c **** 			detectedDoubleLines->line[detectedDoubleLines->numberOfLines].position = detectedTransitions->tr
 496:../Sources/LineDetectionDouble.c **** 			detectedDoubleLines->line[detectedDoubleLines->numberOfLines].lineType = RIGHT;
 497:../Sources/LineDetectionDouble.c **** 			detectedDoubleLines->line[detectedDoubleLines->numberOfLines].derivative = detectedTransitions->
 498:../Sources/LineDetectionDouble.c **** 			
 499:../Sources/LineDetectionDouble.c **** 			if (detectedDoubleLines->line[detectedDoubleLines->numberOfLines].derivative > detectedDoubleLin
 500:../Sources/LineDetectionDouble.c **** 			{
 501:../Sources/LineDetectionDouble.c **** 				detectedDoubleLines->maxDerivativeLeft = detectedDoubleLines->line[detectedDoubleLines->numberO
 502:../Sources/LineDetectionDouble.c **** 			}
 503:../Sources/LineDetectionDouble.c **** 			
 504:../Sources/LineDetectionDouble.c **** 			detectedDoubleLines->numberOfLines++;	
 505:../Sources/LineDetectionDouble.c **** 		}
 506:../Sources/LineDetectionDouble.c **** 		else if (detectedTransitions->transition[k].direction == whiteToBlack)
 507:../Sources/LineDetectionDouble.c **** 		{
 508:../Sources/LineDetectionDouble.c **** 			detectedDoubleLines->line[detectedDoubleLines->numberOfLines].position = detectedTransitions->tr
 509:../Sources/LineDetectionDouble.c **** 			detectedDoubleLines->line[detectedDoubleLines->numberOfLines].lineType = LEFT;
 510:../Sources/LineDetectionDouble.c **** 			detectedDoubleLines->line[detectedDoubleLines->numberOfLines].derivative = detectedTransitions->
 511:../Sources/LineDetectionDouble.c **** 			
 512:../Sources/LineDetectionDouble.c **** 			if (detectedDoubleLines->line[detectedDoubleLines->numberOfLines].derivative > detectedDoubleLin
 513:../Sources/LineDetectionDouble.c **** 			{
 514:../Sources/LineDetectionDouble.c **** 				detectedDoubleLines->maxDerivativeRight = detectedDoubleLines->line[detectedDoubleLines->number
 515:../Sources/LineDetectionDouble.c **** 			}
 516:../Sources/LineDetectionDouble.c **** 			
 517:../Sources/LineDetectionDouble.c **** 			detectedDoubleLines->numberOfLines++;		
 518:../Sources/LineDetectionDouble.c **** 		}
 519:../Sources/LineDetectionDouble.c **** 	}
 520:../Sources/LineDetectionDouble.c **** }
 521:../Sources/LineDetectionDouble.c **** 
 522:../Sources/LineDetectionDouble.c **** void weightTracks(struct detectedTrack_s* previousTrack, struct detectedTracks_s* detectedTracks)
 523:../Sources/LineDetectionDouble.c **** {
 524:../Sources/LineDetectionDouble.c **** 	for (uint8_t k = 0; k < detectedTracks->numberOfTracks; k++)
 525:../Sources/LineDetectionDouble.c **** 	{
 526:../Sources/LineDetectionDouble.c **** 		detectedTracks->track[k].widthCertainty = getProbability(detectedTracks->track[k].width, TRACK_WI
 527:../Sources/LineDetectionDouble.c **** 
 528:../Sources/LineDetectionDouble.c **** 		detectedTracks->track[k].relativePositionCertainty = getProbability(previousTrack->center - detec
 529:../Sources/LineDetectionDouble.c **** 				TRACK_CENTER_DIFFERENCE_MEAN);
 530:../Sources/LineDetectionDouble.c **** 
 531:../Sources/LineDetectionDouble.c **** 		detectedTracks->track[k].certainty = detectedTracks->track[k].widthCertainty * detectedTracks->tr
 532:../Sources/LineDetectionDouble.c **** 	}
 533:../Sources/LineDetectionDouble.c **** }
 534:../Sources/LineDetectionDouble.c **** 
 535:../Sources/LineDetectionDouble.c **** void weightDoubleLines(struct detectedDoubleLine_s* previousLine, struct detectedDoubleLines_s* det
 536:../Sources/LineDetectionDouble.c **** {
 537:../Sources/LineDetectionDouble.c **** 	if (lineType == LEFT)
 538:../Sources/LineDetectionDouble.c **** 	{
 539:../Sources/LineDetectionDouble.c **** 		for (uint8_t k = 0; k < detectedDoubleLines->numberOfLines; k++)
 540:../Sources/LineDetectionDouble.c **** 		{
 541:../Sources/LineDetectionDouble.c **** 			if (detectedDoubleLines->line[k].lineType == LEFT)
 542:../Sources/LineDetectionDouble.c **** 			{
 543:../Sources/LineDetectionDouble.c **** 				detectedDoubleLines->line[k].relativePositionCertainty = getProbability(previousLine->position 
 1035              		.loc 1 543 0 is_stmt 1
 1036 0506 C64A     		ldr	r2, .L397+8
 544:../Sources/LineDetectionDouble.c **** 						DOUBLE_LINE_POSITION_DIFFERENCE_MEAN);
 545:../Sources/LineDetectionDouble.c **** 				
 546:../Sources/LineDetectionDouble.c **** 				detectedDoubleLines->line[k].derivativeCertainty = detectedDoubleLines->line[k].derivative / de
 1037              		.loc 1 546 0
 1038 0508 C348     		ldr	r0, .L397
 1039              	.LBE92:
 1040              	.LBE91:
  89:../Sources/LineDetectionDouble.c **** 	if (detectedTracks.numberOfTracks == 0 && detectedDoubleLines.numberOfLines == 0)
 1041              		.loc 1 89 0
 1042 050a 0026     		mov	r6, #0
 1043              	.LBB95:
 1044              	.LBB93:
 543:../Sources/LineDetectionDouble.c **** 				detectedDoubleLines->line[k].relativePositionCertainty = getProbability(previousLine->position 
 1045              		.loc 1 543 0
 1046 050c 9346     		mov	fp, r2
 1047              		.loc 1 546 0
 1048 050e 8146     		mov	r9, r0
 1049 0510 391C     		mov	r1, r7
 1050 0512 03E0     		b	.L47
 1051              	.L46:
 539:../Sources/LineDetectionDouble.c **** 		for (uint8_t k = 0; k < detectedDoubleLines->numberOfLines; k++)
 1052              		.loc 1 539 0
 1053 0514 0136     		add	r6, r6, #1
 1054 0516 F6B2     		uxtb	r6, r6
 1055              	.LVL45:
 1056 0518 8E42     		cmp	r6, r1
 1057 051a 22D2     		bcs	.L371
 1058              	.LVL46:
 1059              	.L47:
 541:../Sources/LineDetectionDouble.c **** 			if (detectedDoubleLines->line[k].lineType == LEFT)
 1060              		.loc 1 541 0
 1061 051c 3301     		lsl	r3, r6, #4
 1062 051e E718     		add	r7, r4, r3
 1063 0520 7A78     		ldrb	r2, [r7, #1]
 1064 0522 002A     		cmp	r2, #0
 1065 0524 F6D1     		bne	.L46
 543:../Sources/LineDetectionDouble.c **** 				detectedDoubleLines->line[k].relativePositionCertainty = getProbability(previousLine->position 
 1066              		.loc 1 543 0
 1067 0526 5946     		mov	r1, fp
 1068 0528 1B5D     		ldrb	r3, [r3, r4]
 1069 052a 0878     		ldrb	r0, [r1]
 539:../Sources/LineDetectionDouble.c **** 		for (uint8_t k = 0; k < detectedDoubleLines->numberOfLines; k++)
 1070              		.loc 1 539 0
 1071 052c 0136     		add	r6, r6, #1
 543:../Sources/LineDetectionDouble.c **** 				detectedDoubleLines->line[k].relativePositionCertainty = getProbability(previousLine->position 
 1072              		.loc 1 543 0
 1073 052e C11A     		sub	r1, r0, r3
 1074 0530 48B2     		sxtb	r0, r1
 1075 0532 BC49     		ldr	r1, .L397+12
 1076 0534 FFF7FEFF 		bl	getProbability
 1077              	.LVL47:
 1078 0538 7860     		str	r0, [r7, #4]
 1079 053a 8046     		mov	r8, r0
 1080              		.loc 1 546 0
 1081 053c 0222     		mov	r2, #2
 1082 053e B85E     		ldrsh	r0, [r7, r2]
 1083 0540 4A46     		mov	r2, r9
 1084 0542 A15E     		ldrsh	r1, [r4, r2]
 1085 0544 FFF7FEFF 		bl	__aeabi_idiv
 1086              	.LVL48:
 1087 0548 FFF7FEFF 		bl	__aeabi_i2f
 1088              	.LVL49:
 547:../Sources/LineDetectionDouble.c **** 				
 548:../Sources/LineDetectionDouble.c **** 				detectedDoubleLines->line[k].certainty = detectedDoubleLines->line[k].relativePositionCertainty
 1089              		.loc 1 548 0
 1090 054c 4146     		mov	r1, r8
 546:../Sources/LineDetectionDouble.c **** 				detectedDoubleLines->line[k].derivativeCertainty = detectedDoubleLines->line[k].derivative / de
 1091              		.loc 1 546 0
 1092 054e B860     		str	r0, [r7, #8]
 1093              		.loc 1 548 0
 1094 0550 FFF7FEFF 		bl	__aeabi_fmul
 1095              	.LVL50:
 1096 0554 F860     		str	r0, [r7, #12]
 1097 0556 8027     		mov	r7, #128
 1098 0558 B800     		lsl	r0, r7, #2
 1099 055a 215C     		ldrb	r1, [r4, r0]
 539:../Sources/LineDetectionDouble.c **** 		for (uint8_t k = 0; k < detectedDoubleLines->numberOfLines; k++)
 1100              		.loc 1 539 0
 1101 055c F6B2     		uxtb	r6, r6
 1102              	.LVL51:
 1103 055e 8E42     		cmp	r6, r1
 1104 0560 DCD3     		bcc	.L47
 1105              	.LVL52:
 1106              	.L371:
 1107 0562 0F1C     		mov	r7, r1
 1108              	.LVL53:
 1109              	.LBE93:
 1110              	.LBE95:
 1111              	.LBB96:
 1112              	.LBB97:
 1113              	.LBB98:
 1114              	.LBB99:
 1115              	.LBB100:
 549:../Sources/LineDetectionDouble.c **** 			}
 550:../Sources/LineDetectionDouble.c **** 		}
 551:../Sources/LineDetectionDouble.c **** 	}
 552:../Sources/LineDetectionDouble.c **** 	else if (lineType == RIGHT)
 553:../Sources/LineDetectionDouble.c **** 	{
 554:../Sources/LineDetectionDouble.c **** 		for (uint8_t k = 0; k < detectedDoubleLines->numberOfLines; k++)
 1116              		.loc 1 554 0
 1117 0564 0026     		mov	r6, #0
 1118 0566 0029     		cmp	r1, #0
 1119 0568 2ED0     		beq	.L353
 555:../Sources/LineDetectionDouble.c **** 		{
 556:../Sources/LineDetectionDouble.c **** 			if (detectedDoubleLines->line[k].lineType == RIGHT)
 557:../Sources/LineDetectionDouble.c **** 			{
 558:../Sources/LineDetectionDouble.c **** 				detectedDoubleLines->line[k].relativePositionCertainty = getProbability(previousLine->position 
 1120              		.loc 1 558 0
 1121 056a AF4B     		ldr	r3, .L397+16
 559:../Sources/LineDetectionDouble.c **** 						DOUBLE_LINE_POSITION_DIFFERENCE_MEAN);
 560:../Sources/LineDetectionDouble.c **** 				
 561:../Sources/LineDetectionDouble.c **** 				detectedDoubleLines->line[k].derivativeCertainty = detectedDoubleLines->line[k].derivative / de
 1122              		.loc 1 561 0
 1123 056c 8122     		mov	r2, #129
 1124 056e 9000     		lsl	r0, r2, #2
 558:../Sources/LineDetectionDouble.c **** 				detectedDoubleLines->line[k].relativePositionCertainty = getProbability(previousLine->position 
 1125              		.loc 1 558 0
 1126 0570 9A46     		mov	sl, r3
 1127              		.loc 1 561 0
 1128 0572 8346     		mov	fp, r0
 1129 0574 03E0     		b	.L170
 1130              	.LVL54:
 1131              	.L49:
 554:../Sources/LineDetectionDouble.c **** 		for (uint8_t k = 0; k < detectedDoubleLines->numberOfLines; k++)
 1132              		.loc 1 554 0
 1133 0576 0136     		add	r6, r6, #1
 1134 0578 F6B2     		uxtb	r6, r6
 1135              	.LVL55:
 1136 057a 8E42     		cmp	r6, r1
 1137 057c 23D2     		bcs	.L372
 1138              	.LVL56:
 1139              	.L170:
 556:../Sources/LineDetectionDouble.c **** 			if (detectedDoubleLines->line[k].lineType == RIGHT)
 1140              		.loc 1 556 0
 1141 057e 3301     		lsl	r3, r6, #4
 1142 0580 E718     		add	r7, r4, r3
 1143 0582 7A78     		ldrb	r2, [r7, #1]
 1144 0584 012A     		cmp	r2, #1
 1145 0586 F6D1     		bne	.L49
 558:../Sources/LineDetectionDouble.c **** 				detectedDoubleLines->line[k].relativePositionCertainty = getProbability(previousLine->position 
 1146              		.loc 1 558 0
 1147 0588 5146     		mov	r1, sl
 1148 058a 1B5D     		ldrb	r3, [r3, r4]
 1149 058c 0878     		ldrb	r0, [r1]
 1150 058e A549     		ldr	r1, .L397+12
 1151 0590 C21A     		sub	r2, r0, r3
 1152 0592 50B2     		sxtb	r0, r2
 1153 0594 0022     		mov	r2, #0
 1154 0596 FFF7FEFF 		bl	getProbability
 1155              	.LVL57:
 1156              		.loc 1 561 0
 1157 059a 5946     		mov	r1, fp
 558:../Sources/LineDetectionDouble.c **** 				detectedDoubleLines->line[k].relativePositionCertainty = getProbability(previousLine->position 
 1158              		.loc 1 558 0
 1159 059c 7860     		str	r0, [r7, #4]
 1160              		.loc 1 561 0
 1161 059e 615E     		ldrsh	r1, [r4, r1]
 558:../Sources/LineDetectionDouble.c **** 				detectedDoubleLines->line[k].relativePositionCertainty = getProbability(previousLine->position 
 1162              		.loc 1 558 0
 1163 05a0 8146     		mov	r9, r0
 1164              		.loc 1 561 0
 1165 05a2 0222     		mov	r2, #2
 1166 05a4 B85E     		ldrsh	r0, [r7, r2]
 1167 05a6 FFF7FEFF 		bl	__aeabi_idiv
 1168              	.LVL58:
 1169 05aa FFF7FEFF 		bl	__aeabi_i2f
 1170              	.LVL59:
 562:../Sources/LineDetectionDouble.c **** 				
 563:../Sources/LineDetectionDouble.c **** 				detectedDoubleLines->line[k].certainty = detectedDoubleLines->line[k].relativePositionCertainty
 1171              		.loc 1 563 0
 1172 05ae 4946     		mov	r1, r9
 561:../Sources/LineDetectionDouble.c **** 				detectedDoubleLines->line[k].derivativeCertainty = detectedDoubleLines->line[k].derivative / de
 1173              		.loc 1 561 0
 1174 05b0 B860     		str	r0, [r7, #8]
 1175              		.loc 1 563 0
 1176 05b2 FFF7FEFF 		bl	__aeabi_fmul
 1177              	.LVL60:
 1178 05b6 F860     		str	r0, [r7, #12]
 1179 05b8 8027     		mov	r7, #128
 1180 05ba B800     		lsl	r0, r7, #2
 554:../Sources/LineDetectionDouble.c **** 		for (uint8_t k = 0; k < detectedDoubleLines->numberOfLines; k++)
 1181              		.loc 1 554 0
 1182 05bc 0136     		add	r6, r6, #1
 1183 05be 215C     		ldrb	r1, [r4, r0]
 1184 05c0 F6B2     		uxtb	r6, r6
 1185              	.LVL61:
 1186 05c2 8E42     		cmp	r6, r1
 1187 05c4 DBD3     		bcc	.L170
 1188              	.LVL62:
 1189              	.L372:
 1190 05c6 0F1C     		mov	r7, r1
 1191              	.L353:
 1192 05c8 8023     		mov	r3, #128
 1193 05ca 9A00     		lsl	r2, r3, #2
 1194 05cc A85C     		ldrb	r0, [r5, r2]
 1195 05ce 8346     		mov	fp, r0
 1196              	.L45:
 1197              	.LVL63:
 1198              	.LBE100:
 1199              	.LBE99:
 1200              	.LBE98:
 1201              	.LBE97:
 1202              	.LBE96:
 1203              	.LBB105:
 129:../Sources/LineDetectionDouble.c **** 	for (uint8_t k = 0; k < detectedTracks.numberOfTracks; k++)
 1204              		.loc 1 129 0
 1205 05d0 5946     		mov	r1, fp
 1206 05d2 0029     		cmp	r1, #0
 1207 05d4 01D1     		bne	.LCB981
 1208 05d6 00F007FD 		bl	.L121	@far jump
 1209              	.LCB981:
  28:../Sources/LineDetectionDouble.c **** void findLine(volatile uint16_t* lineScanImage, volatile uint16_t* lineScanImage1, carState_s* carS
 1210              		.loc 1 28 0
 1211 05da 5946     		mov	r1, fp
 1212 05dc 0139     		sub	r1, r1, #1
 1213 05de CEB2     		uxtb	r6, r1
 1214 05e0 2A1C     		mov	r2, r5
 1215 05e2 3301     		lsl	r3, r6, #4
 1216 05e4 1432     		add	r2, r2, #20
 1217 05e6 D218     		add	r2, r2, r3
 1218 05e8 281D     		add	r0, r5, #4
 1219 05ea 8246     		mov	sl, r0
 1220 05ec 101A     		sub	r0, r2, r0
 1221              	.LBE105:
 1222              	.LBB106:
 1223              	.LBB104:
 1224              	.LBB103:
 1225              	.LBB102:
 1226              	.LBB101:
 1227 05ee 0021     		mov	r1, #0
 1228 05f0 1038     		sub	r0, r0, #16
 1229 05f2 C306     		lsl	r3, r0, #27
 1230 05f4 0891     		str	r1, [sp, #32]
 1231              	.LBE101:
 1232              	.LBE102:
 1233              	.LBE103:
 1234              	.LBE104:
 1235              	.LBE106:
 1236              	.LBB107:
 1237 05f6 9146     		mov	r9, r2
 1238 05f8 0AAE     		add	r6, sp, #40
 1239 05fa DA0F     		lsr	r2, r3, #31
 131:../Sources/LineDetectionDouble.c **** 		if (detectedTracks.track[k].certainty > bestTrack.certainty)
 1240              		.loc 1 131 0
 1241 05fc 6868     		ldr	r0, [r5, #4]
 1242 05fe 0899     		ldr	r1, [sp, #32]
 1243 0600 0196     		str	r6, [sp, #4]
 1244 0602 0492     		str	r2, [sp, #16]
 1245 0604 FFF7FEFF 		bl	__aeabi_fcmpgt
 1246              	.LVL64:
 1247 0608 0028     		cmp	r0, #0
 1248 060a 00D0     		beq	.LCB1019
 1249 060c F0E1     		b	.L227	@long jump
 1250              	.LCB1019:
 1251              	.L306:
 1252              	.LVL65:
 1253 060e 1023     		mov	r3, #16
 1254 0610 9846     		mov	r8, r3
 1255 0612 D044     		add	r8, r8, sl
 129:../Sources/LineDetectionDouble.c **** 	for (uint8_t k = 0; k < detectedTracks.numberOfTracks; k++)
 1256              		.loc 1 129 0
 1257 0614 C845     		cmp	r8, r9
 1258 0616 47D0     		beq	.L50
 1259 0618 049A     		ldr	r2, [sp, #16]
 1260 061a 002A     		cmp	r2, #0
 1261 061c 14D0     		beq	.L345
 131:../Sources/LineDetectionDouble.c **** 		if (detectedTracks.track[k].certainty > bestTrack.certainty)
 1262              		.loc 1 131 0
 1263 061e 4146     		mov	r1, r8
 1264 0620 0868     		ldr	r0, [r1]
 1265 0622 0899     		ldr	r1, [sp, #32]
 1266 0624 FFF7FEFF 		bl	__aeabi_fcmpgt
 1267              	.LVL66:
 1268 0628 0028     		cmp	r0, #0
 1269 062a 09D0     		beq	.L324
 133:../Sources/LineDetectionDouble.c **** 			bestTrack = detectedTracks.track[k];
 1270              		.loc 1 133 0
 1271 062c 019A     		ldr	r2, [sp, #4]
  28:../Sources/LineDetectionDouble.c **** void findLine(volatile uint16_t* lineScanImage, volatile uint16_t* lineScanImage1, carState_s* carS
 1272              		.loc 1 28 0
 1273 062e 5346     		mov	r3, sl
 1274 0630 0C33     		add	r3, r3, #12
 133:../Sources/LineDetectionDouble.c **** 			bestTrack = detectedTracks.track[k];
 1275              		.loc 1 133 0
 1276 0632 43CB     		ldmia	r3!, {r0, r1, r6}
 1277 0634 43C2     		stmia	r2!, {r0, r1, r6}
 1278 0636 1E68     		ldr	r6, [r3]
 1279 0638 1660     		str	r6, [r2]
 1280 063a 0198     		ldr	r0, [sp, #4]
 1281 063c 4168     		ldr	r1, [r0, #4]
 1282 063e 0891     		str	r1, [sp, #32]
 1283              	.L324:
 1284 0640 1023     		mov	r3, #16
 1285 0642 9844     		add	r8, r8, r3
 129:../Sources/LineDetectionDouble.c **** 	for (uint8_t k = 0; k < detectedTracks.numberOfTracks; k++)
 1286              		.loc 1 129 0
 1287 0644 C845     		cmp	r8, r9
 1288 0646 2FD0     		beq	.L50
 1289              	.L345:
 1290 0648 5A46     		mov	r2, fp
 1291 064a BB46     		mov	fp, r7
 1292 064c 089F     		ldr	r7, [sp, #32]
 1293 064e 4646     		mov	r6, r8
 1294 0650 0592     		str	r2, [sp, #20]
 1295 0652 B846     		mov	r8, r7
 1296              	.L53:
 131:../Sources/LineDetectionDouble.c **** 		if (detectedTracks.track[k].certainty > bestTrack.certainty)
 1297              		.loc 1 131 0
 1298 0654 3068     		ldr	r0, [r6]
 1299 0656 4146     		mov	r1, r8
 1300 0658 FFF7FEFF 		bl	__aeabi_fcmpgt
 1301              	.LVL67:
 1302 065c 0028     		cmp	r0, #0
 1303 065e 08D0     		beq	.L51
 133:../Sources/LineDetectionDouble.c **** 			bestTrack = detectedTracks.track[k];
 1304              		.loc 1 133 0
 1305 0660 0199     		ldr	r1, [sp, #4]
  28:../Sources/LineDetectionDouble.c **** void findLine(volatile uint16_t* lineScanImage, volatile uint16_t* lineScanImage1, carState_s* carS
 1306              		.loc 1 28 0
 1307 0662 301F     		sub	r0, r6, #4
 133:../Sources/LineDetectionDouble.c **** 			bestTrack = detectedTracks.track[k];
 1308              		.loc 1 133 0
 1309 0664 8CC8     		ldmia	r0!, {r2, r3, r7}
 1310 0666 8CC1     		stmia	r1!, {r2, r3, r7}
 1311 0668 0368     		ldr	r3, [r0]
 1312 066a 0B60     		str	r3, [r1]
 1313 066c 019A     		ldr	r2, [sp, #4]
 1314 066e 5768     		ldr	r7, [r2, #4]
 1315 0670 B846     		mov	r8, r7
 1316              	.L51:
 1317 0672 1020     		mov	r0, #16
 1318 0674 8119     		add	r1, r0, r6
 1319 0676 8A46     		mov	sl, r1
 131:../Sources/LineDetectionDouble.c **** 		if (detectedTracks.track[k].certainty > bestTrack.certainty)
 1320              		.loc 1 131 0
 1321 0678 3069     		ldr	r0, [r6, #16]
 1322 067a 4146     		mov	r1, r8
 1323 067c FFF7FEFF 		bl	__aeabi_fcmpgt
 1324              	.LVL68:
 1325 0680 0028     		cmp	r0, #0
 1326 0682 08D0     		beq	.L307
 133:../Sources/LineDetectionDouble.c **** 			bestTrack = detectedTracks.track[k];
 1327              		.loc 1 133 0
 1328 0684 019B     		ldr	r3, [sp, #4]
  28:../Sources/LineDetectionDouble.c **** void findLine(volatile uint16_t* lineScanImage, volatile uint16_t* lineScanImage1, carState_s* carS
 1329              		.loc 1 28 0
 1330 0686 0C36     		add	r6, r6, #12
 133:../Sources/LineDetectionDouble.c **** 			bestTrack = detectedTracks.track[k];
 1331              		.loc 1 133 0
 1332 0688 86CE     		ldmia	r6!, {r1, r2, r7}
 1333 068a 86C3     		stmia	r3!, {r1, r2, r7}
 1334 068c 3668     		ldr	r6, [r6]
 1335 068e 1E60     		str	r6, [r3]
 1336 0690 019A     		ldr	r2, [sp, #4]
 1337 0692 5768     		ldr	r7, [r2, #4]
 1338 0694 B846     		mov	r8, r7
 1339              	.L307:
 1340 0696 5646     		mov	r6, sl
 1341 0698 1036     		add	r6, r6, #16
 129:../Sources/LineDetectionDouble.c **** 	for (uint8_t k = 0; k < detectedTracks.numberOfTracks; k++)
 1342              		.loc 1 129 0
 1343 069a 4E45     		cmp	r6, r9
 1344 069c DAD1     		bne	.L53
 1345 069e 059B     		ldr	r3, [sp, #20]
 1346 06a0 4046     		mov	r0, r8
 1347 06a2 5F46     		mov	r7, fp
 1348 06a4 0890     		str	r0, [sp, #32]
 1349 06a6 9B46     		mov	fp, r3
 1350              	.L50:
 1351              	.LVL69:
 1352              	.LBE107:
 1353              	.LBB108:
 139:../Sources/LineDetectionDouble.c **** 	for (uint8_t k = 0; k < detectedDoubleLines.numberOfLines; k++)
 1354              		.loc 1 139 0
 1355 06a8 002F     		cmp	r7, #0
 1356 06aa 01D1     		bne	.LCB1118
 1357 06ac 00F098FC 		bl	.L122	@far jump
 1358              	.LCB1118:
 1359 06b0 0C26     		mov	r6, #12
  28:../Sources/LineDetectionDouble.c **** void findLine(volatile uint16_t* lineScanImage, volatile uint16_t* lineScanImage1, carState_s* carS
 1360              		.loc 1 28 0
 1361 06b2 7B1E     		sub	r3, r7, #1
 1362 06b4 3119     		add	r1, r6, r4
 1363 06b6 221C     		mov	r2, r4
 1364 06b8 DEB2     		uxtb	r6, r3
 1365 06ba 8946     		mov	r9, r1
 1366 06bc 1132     		add	r2, r2, #17
 1367 06be 3101     		lsl	r1, r6, #4
 1368 06c0 5218     		add	r2, r2, r1
 1369 06c2 601C     		add	r0, r4, #1
 1370 06c4 8246     		mov	sl, r0
 1371 06c6 101A     		sub	r0, r2, r0
 147:../Sources/LineDetectionDouble.c **** 			bestRight = detectedDoubleLines.line[k];
 1372              		.loc 1 147 0
 1373 06c8 12AE     		add	r6, sp, #72
 1374 06ca 1038     		sub	r0, r0, #16
 1375              	.LBE108:
 1376              	.LBB109:
  28:../Sources/LineDetectionDouble.c **** void findLine(volatile uint16_t* lineScanImage, volatile uint16_t* lineScanImage1, carState_s* carS
 1377              		.loc 1 28 0
 1378 06cc 0023     		mov	r3, #0
 1379              	.LBE109:
 1380              	.LBB110:
 1381 06ce 0592     		str	r2, [sp, #20]
 147:../Sources/LineDetectionDouble.c **** 			bestRight = detectedDoubleLines.line[k];
 1382              		.loc 1 147 0
 1383 06d0 0396     		str	r6, [sp, #12]
 1384 06d2 C206     		lsl	r2, r0, #27
 141:../Sources/LineDetectionDouble.c **** 		if (detectedDoubleLines.line[k].lineType == LEFT && detectedDoubleLines.line[k].certainty > bestL
 1385              		.loc 1 141 0
 1386 06d4 6678     		ldrb	r6, [r4, #1]
 1387              	.LBE110:
 1388              	.LBB111:
  28:../Sources/LineDetectionDouble.c **** void findLine(volatile uint16_t* lineScanImage, volatile uint16_t* lineScanImage1, carState_s* carS
 1389              		.loc 1 28 0
 1390 06d6 0793     		str	r3, [sp, #28]
 1391 06d8 0493     		str	r3, [sp, #16]
 1392              	.LBE111:
 1393              	.LBB112:
 143:../Sources/LineDetectionDouble.c **** 			bestLeft = detectedDoubleLines.line[k];
 1394              		.loc 1 143 0
 1395 06da 0EA9     		add	r1, sp, #56
 1396 06dc D30F     		lsr	r3, r2, #31
 1397 06de 0291     		str	r1, [sp, #8]
 1398 06e0 0993     		str	r3, [sp, #36]
 141:../Sources/LineDetectionDouble.c **** 		if (detectedDoubleLines.line[k].lineType == LEFT && detectedDoubleLines.line[k].certainty > bestL
 1399              		.loc 1 141 0
 1400 06e2 002E     		cmp	r6, #0
 1401 06e4 00D0     		beq	.LCB1154
 1402 06e6 8DE1     		b	.L211	@long jump
 1403              	.LCB1154:
 1404 06e8 4B46     		mov	r3, r9
 1405 06ea 1868     		ldr	r0, [r3]
 1406 06ec 0799     		ldr	r1, [sp, #28]
 1407 06ee FFF7FEFF 		bl	__aeabi_fcmpgt
 1408              	.LVL70:
 1409 06f2 0028     		cmp	r0, #0
 1410 06f4 01D0     		beq	.LCB1161
 1411 06f6 00F0E5FB 		bl	.L373	@far jump
 1412              	.LCB1161:
 1413              	.L212:
 1414              	.LVL71:
 1415 06fa 1023     		mov	r3, #16
 1416 06fc 9846     		mov	r8, r3
 139:../Sources/LineDetectionDouble.c **** 	for (uint8_t k = 0; k < detectedDoubleLines.numberOfLines; k++)
 1417              		.loc 1 139 0
 1418 06fe 059A     		ldr	r2, [sp, #20]
 1419 0700 D044     		add	r8, r8, sl
 1420 0702 9944     		add	r9, r9, r3
 1421 0704 9045     		cmp	r8, r2
 1422 0706 00D1     		bne	.LCB1170
 1423 0708 E4E1     		b	.L322	@long jump
 1424              	.LCB1170:
 1425 070a 0998     		ldr	r0, [sp, #36]
 1426 070c 0028     		cmp	r0, #0
 1427 070e 00D1     		bne	.LCB1173
 1428 0710 1CE3     		b	.L342	@long jump
 1429              	.LCB1173:
 141:../Sources/LineDetectionDouble.c **** 		if (detectedDoubleLines.line[k].lineType == LEFT && detectedDoubleLines.line[k].certainty > bestL
 1430              		.loc 1 141 0
 1431 0712 4346     		mov	r3, r8
 1432 0714 1A78     		ldrb	r2, [r3]
 1433 0716 002A     		cmp	r2, #0
 1434 0718 00D1     		bne	.LCB1177
 1435 071a 1AE3     		b	.L323	@long jump
 1436              	.LCB1177:
 145:../Sources/LineDetectionDouble.c **** 		else if (detectedDoubleLines.line[k].lineType == RIGHT && detectedDoubleLines.line[k].certainty >
 1437              		.loc 1 145 0
 1438 071c 012A     		cmp	r2, #1
 1439 071e 01D1     		bne	.LCB1179
 1440 0720 00F0EFFB 		bl	.L374	@far jump
 1441              	.LCB1179:
 1442              	.L217:
 1443 0724 1020     		mov	r0, #16
 139:../Sources/LineDetectionDouble.c **** 	for (uint8_t k = 0; k < detectedDoubleLines.numberOfLines; k++)
 1444              		.loc 1 139 0
 1445 0726 059B     		ldr	r3, [sp, #20]
 1446 0728 8044     		add	r8, r8, r0
 1447 072a 8144     		add	r9, r9, r0
 1448 072c 9845     		cmp	r8, r3
 1449 072e 00D1     		bne	.LCB1187
 1450 0730 D0E1     		b	.L322	@long jump
 1451              	.LCB1187:
 1452 0732 5A46     		mov	r2, fp
 1453 0734 0992     		str	r2, [sp, #36]
 1454              	.L354:
 1455 0736 BA46     		mov	sl, r7
 1456 0738 019F     		ldr	r7, [sp, #4]
 1457 073a 4946     		mov	r1, r9
 1458 073c BB46     		mov	fp, r7
 1459 073e 4646     		mov	r6, r8
 1460 0740 0191     		str	r1, [sp, #4]
 1461 0742 31E0     		b	.L59
 1462              	.L376:
 141:../Sources/LineDetectionDouble.c **** 		if (detectedDoubleLines.line[k].lineType == LEFT && detectedDoubleLines.line[k].certainty > bestL
 1463              		.loc 1 141 0
 1464 0744 019B     		ldr	r3, [sp, #4]
 1465 0746 0499     		ldr	r1, [sp, #16]
 1466 0748 1868     		ldr	r0, [r3]
 1467 074a FFF7FEFF 		bl	__aeabi_fcmpgt
 1468              	.LVL72:
 1469 074e 0028     		cmp	r0, #0
 1470 0750 07D0     		beq	.L56
 143:../Sources/LineDetectionDouble.c **** 			bestLeft = detectedDoubleLines.line[k];
 1471              		.loc 1 143 0
 1472 0752 029F     		ldr	r7, [sp, #8]
  28:../Sources/LineDetectionDouble.c **** void findLine(volatile uint16_t* lineScanImage, volatile uint16_t* lineScanImage1, carState_s* carS
 1473              		.loc 1 28 0
 1474 0754 731E     		sub	r3, r6, #1
 143:../Sources/LineDetectionDouble.c **** 			bestLeft = detectedDoubleLines.line[k];
 1475              		.loc 1 143 0
 1476 0756 07CB     		ldmia	r3!, {r0, r1, r2}
 1477 0758 07C7     		stmia	r7!, {r0, r1, r2}
 1478 075a 1A68     		ldr	r2, [r3]
 1479 075c 3A60     		str	r2, [r7]
 1480 075e 1199     		ldr	r1, [sp, #68]
 1481 0760 0491     		str	r1, [sp, #16]
 1482              	.L56:
 1483 0762 1020     		mov	r0, #16
 1484 0764 1027     		mov	r7, #16
 1485 0766 019A     		ldr	r2, [sp, #4]
 141:../Sources/LineDetectionDouble.c **** 		if (detectedDoubleLines.line[k].lineType == LEFT && detectedDoubleLines.line[k].certainty > bestL
 1486              		.loc 1 141 0
 1487 0768 317C     		ldrb	r1, [r6, #16]
 1488 076a 8319     		add	r3, r0, r6
 1489 076c B846     		mov	r8, r7
 1490 076e 9946     		mov	r9, r3
 1491 0770 9044     		add	r8, r8, r2
 1492 0772 0029     		cmp	r1, #0
 1493 0774 00D0     		beq	.LCB1229
 1494 0776 8CE1     		b	.L222	@long jump
 1495              	.LCB1229:
 1496 0778 019A     		ldr	r2, [sp, #4]
 1497 077a 0499     		ldr	r1, [sp, #16]
 1498 077c 1069     		ldr	r0, [r2, #16]
 1499 077e FFF7FEFF 		bl	__aeabi_fcmpgt
 1500              	.LVL73:
 1501 0782 0028     		cmp	r0, #0
 1502 0784 07D0     		beq	.L223
 143:../Sources/LineDetectionDouble.c **** 			bestLeft = detectedDoubleLines.line[k];
 1503              		.loc 1 143 0
 1504 0786 029B     		ldr	r3, [sp, #8]
  28:../Sources/LineDetectionDouble.c **** void findLine(volatile uint16_t* lineScanImage, volatile uint16_t* lineScanImage1, carState_s* carS
 1505              		.loc 1 28 0
 1506 0788 0F36     		add	r6, r6, #15
 143:../Sources/LineDetectionDouble.c **** 			bestLeft = detectedDoubleLines.line[k];
 1507              		.loc 1 143 0
 1508 078a 07CE     		ldmia	r6!, {r0, r1, r2}
 1509 078c 07C3     		stmia	r3!, {r0, r1, r2}
 1510 078e 3168     		ldr	r1, [r6]
 1511 0790 1960     		str	r1, [r3]
 1512 0792 1198     		ldr	r0, [sp, #68]
 1513 0794 0490     		str	r0, [sp, #16]
 1514              	.L223:
 1515 0796 4E46     		mov	r6, r9
 1516 0798 4746     		mov	r7, r8
 139:../Sources/LineDetectionDouble.c **** 	for (uint8_t k = 0; k < detectedDoubleLines.numberOfLines; k++)
 1517              		.loc 1 139 0
 1518 079a 059A     		ldr	r2, [sp, #20]
 1519 079c 1037     		add	r7, r7, #16
 1520 079e 1036     		add	r6, r6, #16
 1521 07a0 0197     		str	r7, [sp, #4]
 1522 07a2 9642     		cmp	r6, r2
 1523 07a4 00D1     		bne	.LCB1255
 1524 07a6 90E1     		b	.L375	@long jump
 1525              	.LCB1255:
 1526              	.L59:
 141:../Sources/LineDetectionDouble.c **** 		if (detectedDoubleLines.line[k].lineType == LEFT && detectedDoubleLines.line[k].certainty > bestL
 1527              		.loc 1 141 0
 1528 07a8 3378     		ldrb	r3, [r6]
 1529 07aa 002B     		cmp	r3, #0
 1530 07ac CAD0     		beq	.L376
 145:../Sources/LineDetectionDouble.c **** 		else if (detectedDoubleLines.line[k].lineType == RIGHT && detectedDoubleLines.line[k].certainty >
 1531              		.loc 1 145 0
 1532 07ae 012B     		cmp	r3, #1
 1533 07b0 D7D1     		bne	.L56
 145:../Sources/LineDetectionDouble.c **** 		else if (detectedDoubleLines.line[k].lineType == RIGHT && detectedDoubleLines.line[k].certainty >
 1534              		.loc 1 145 0 is_stmt 0
 1535 07b2 019A     		ldr	r2, [sp, #4]
 1536 07b4 0799     		ldr	r1, [sp, #28]
 1537 07b6 1068     		ldr	r0, [r2]
 1538 07b8 FFF7FEFF 		bl	__aeabi_fcmpgt
 1539              	.LVL74:
 1540 07bc 0028     		cmp	r0, #0
 1541 07be D0D0     		beq	.L56
 147:../Sources/LineDetectionDouble.c **** 			bestRight = detectedDoubleLines.line[k];
 1542              		.loc 1 147 0 is_stmt 1
 1543 07c0 039F     		ldr	r7, [sp, #12]
  28:../Sources/LineDetectionDouble.c **** void findLine(volatile uint16_t* lineScanImage, volatile uint16_t* lineScanImage1, carState_s* carS
 1544              		.loc 1 28 0
 1545 07c2 721E     		sub	r2, r6, #1
 147:../Sources/LineDetectionDouble.c **** 			bestRight = detectedDoubleLines.line[k];
 1546              		.loc 1 147 0
 1547 07c4 0BCA     		ldmia	r2!, {r0, r1, r3}
 1548 07c6 0BC7     		stmia	r7!, {r0, r1, r3}
 1549 07c8 1168     		ldr	r1, [r2]
 1550 07ca 3960     		str	r1, [r7]
 1551 07cc 1598     		ldr	r0, [sp, #84]
 1552 07ce 0790     		str	r0, [sp, #28]
 1553 07d0 C7E7     		b	.L56
 1554              	.L337:
 1555 07d2 8020     		mov	r0, #128
 1556 07d4 8100     		lsl	r1, r0, #2
 1557 07d6 4346     		mov	r3, r8
 1558 07d8 6A54     		strb	r2, [r5, r1]
 1559              	.LVL75:
 1560              	.L22:
 1561              	.LBE112:
 1562              	.LBB113:
 1563              	.LBB114:
 491:../Sources/LineDetectionDouble.c **** 	for (uint8_t k = 0; k < detectedTransitions->numberOfTransitions && detectedDoubleLines->numberOfL
 1564              		.loc 1 491 0
 1565 07da 8022     		mov	r2, #128
 1566 07dc 9700     		lsl	r7, r2, #2
 1567 07de E75D     		ldrb	r7, [r4, r7]
 1568 07e0 1F2F     		cmp	r7, #31
 1569 07e2 00D9     		bls	.LCB1297
 1570 07e4 77E6     		b	.L20	@long jump
 1571              	.LCB1297:
 512:../Sources/LineDetectionDouble.c **** 			if (detectedDoubleLines->line[detectedDoubleLines->numberOfLines].derivative > detectedDoubleLin
 1572              		.loc 1 512 0
 1573 07e6 8121     		mov	r1, #129
 1574 07e8 8A00     		lsl	r2, r1, #2
 1575 07ea A15A     		ldrh	r1, [r4, r2]
  28:../Sources/LineDetectionDouble.c **** void findLine(volatile uint16_t* lineScanImage, volatile uint16_t* lineScanImage1, carState_s* carS
 1576              		.loc 1 28 0
 1577 07ec 013B     		sub	r3, r3, #1
 512:../Sources/LineDetectionDouble.c **** 			if (detectedDoubleLines->line[detectedDoubleLines->numberOfLines].derivative > detectedDoubleLin
 1578              		.loc 1 512 0
 1579 07ee 8946     		mov	r9, r1
  28:../Sources/LineDetectionDouble.c **** void findLine(volatile uint16_t* lineScanImage, volatile uint16_t* lineScanImage1, carState_s* carS
 1580              		.loc 1 28 0
 1581 07f0 D9B2     		uxtb	r1, r3
 1582 07f2 8B00     		lsl	r3, r1, #2
 509:../Sources/LineDetectionDouble.c **** 			detectedDoubleLines->line[detectedDoubleLines->numberOfLines].lineType = LEFT;
 1583              		.loc 1 509 0
 1584 07f4 0021     		mov	r1, #0
  28:../Sources/LineDetectionDouble.c **** void findLine(volatile uint16_t* lineScanImage, volatile uint16_t* lineScanImage1, carState_s* carS
 1585              		.loc 1 28 0
 1586 07f6 9B46     		mov	fp, r3
 499:../Sources/LineDetectionDouble.c **** 			if (detectedDoubleLines->line[detectedDoubleLines->numberOfLines].derivative > detectedDoubleLin
 1587              		.loc 1 499 0
 1588 07f8 0748     		ldr	r0, .L397
 1589 07fa 721C     		add	r2, r6, #1
 509:../Sources/LineDetectionDouble.c **** 			detectedDoubleLines->line[detectedDoubleLines->numberOfLines].lineType = LEFT;
 1590              		.loc 1 509 0
 1591 07fc 8A46     		mov	sl, r1
 1592 07fe 0121     		mov	r1, #1
 1593 0800 9046     		mov	r8, r2
 1594 0802 8C46     		mov	ip, r1
 1595 0804 5946     		mov	r1, fp
 499:../Sources/LineDetectionDouble.c **** 			if (detectedDoubleLines->line[detectedDoubleLines->numberOfLines].derivative > detectedDoubleLin
 1596              		.loc 1 499 0
 1597 0806 205A     		ldrh	r0, [r4, r0]
 1598              	.LBE114:
 1599              	.LBE113:
 1600              	.LBB120:
 1601              	.LBB88:
 1602              	.LBB86:
  28:../Sources/LineDetectionDouble.c **** void findLine(volatile uint16_t* lineScanImage, volatile uint16_t* lineScanImage1, carState_s* carS
 1603              		.loc 1 28 0
 1604 0808 3B1C     		mov	r3, r7
 1605 080a D844     		add	r8, r8, fp
 1606 080c 4907     		lsl	r1, r1, #29
 1607 080e 4AD4     		bmi	.L305
 1608              	.L346:
 1609 0810 391C     		mov	r1, r7
 1610 0812 C346     		mov	fp, r8
 1611 0814 2BE0     		b	.L36
 1612              	.L398:
 1613 0816 C046     		.align	2
 1614              	.L397:
 1615 0818 02020000 		.word	514
 1616 081c 00000000 		.word	cross_section_enable
 1617 0820 00000000 		.word	.LANCHOR12
 1618 0824 00002041 		.word	1092616192
 1619 0828 00000000 		.word	.LANCHOR13
 1620              	.L378:
 1621              	.LBE86:
 1622              	.LBE88:
 1623              	.LBE120:
 1624              	.LBB121:
 1625              	.LBB115:
 1626 082c 511E     		sub	r1, r2, #1
 495:../Sources/LineDetectionDouble.c **** 			detectedDoubleLines->line[detectedDoubleLines->numberOfLines].position = detectedTransitions->tr
 1627              		.loc 1 495 0
 1628 082e 0E78     		ldrb	r6, [r1]
 1629 0830 1F01     		lsl	r7, r3, #4
 1630 0832 E655     		strb	r6, [r4, r7]
  28:../Sources/LineDetectionDouble.c **** void findLine(volatile uint16_t* lineScanImage, volatile uint16_t* lineScanImage1, carState_s* carS
 1631              		.loc 1 28 0
 1632 0834 511C     		add	r1, r2, #1
 496:../Sources/LineDetectionDouble.c **** 			detectedDoubleLines->line[detectedDoubleLines->numberOfLines].lineType = RIGHT;
 1633              		.loc 1 496 0
 1634 0836 E619     		add	r6, r4, r7
 1635 0838 6746     		mov	r7, ip
 1636 083a 7770     		strb	r7, [r6, #1]
 497:../Sources/LineDetectionDouble.c **** 			detectedDoubleLines->line[detectedDoubleLines->numberOfLines].derivative = detectedTransitions->
 1637              		.loc 1 497 0
 1638 083c 0F88     		ldrh	r7, [r1]
 1639 083e 7780     		strh	r7, [r6, #2]
 1640 0840 39B2     		sxth	r1, r7
 1641 0842 06B2     		sxth	r6, r0
 1642 0844 8E42     		cmp	r6, r1
 1643 0846 00DA     		bge	.L32
 1644 0848 381C     		add	r0, r7, #0
 1645              	.L32:
 504:../Sources/LineDetectionDouble.c **** 			detectedDoubleLines->numberOfLines++;	
 1646              		.loc 1 504 0
 1647 084a 0133     		add	r3, r3, #1
 1648 084c DBB2     		uxtb	r3, r3
 1649 084e 80B2     		uxth	r0, r0
 1650 0850 191C     		mov	r1, r3
 1651              	.L33:
 491:../Sources/LineDetectionDouble.c **** 	for (uint8_t k = 0; k < detectedTransitions->numberOfTransitions && detectedDoubleLines->numberOfL
 1652              		.loc 1 491 0
 1653 0852 5A45     		cmp	r2, fp
 1654 0854 00D1     		bne	.LCB1375
 1655 0856 35E6     		b	.L35	@long jump
 1656              	.LCB1375:
 1657 0858 161D     		add	r6, r2, #4
 1658 085a 1F2B     		cmp	r3, #31
 1659 085c 4ED8     		bhi	.L352
 493:../Sources/LineDetectionDouble.c **** 		if (detectedTransitions->transition[k].direction == blackToWhite)
 1660              		.loc 1 493 0
 1661 085e 1779     		ldrb	r7, [r2, #4]
 1662 0860 002F     		cmp	r7, #0
 1663 0862 36D0     		beq	.L329
 506:../Sources/LineDetectionDouble.c **** 		else if (detectedTransitions->transition[k].direction == whiteToBlack)
 1664              		.loc 1 506 0
 1665 0864 012F     		cmp	r7, #1
 1666 0866 64D0     		beq	.L377
 1667              	.L280:
 1668 0868 321D     		add	r2, r6, #4
 491:../Sources/LineDetectionDouble.c **** 	for (uint8_t k = 0; k < detectedTransitions->numberOfTransitions && detectedDoubleLines->numberOfL
 1669              		.loc 1 491 0
 1670 086a 1F2B     		cmp	r3, #31
 1671 086c 46D8     		bhi	.L352
 1672              	.L36:
 493:../Sources/LineDetectionDouble.c **** 		if (detectedTransitions->transition[k].direction == blackToWhite)
 1673              		.loc 1 493 0
 1674 086e 1678     		ldrb	r6, [r2]
 1675 0870 002E     		cmp	r6, #0
 1676 0872 DBD0     		beq	.L378
 506:../Sources/LineDetectionDouble.c **** 		else if (detectedTransitions->transition[k].direction == whiteToBlack)
 1677              		.loc 1 506 0
 1678 0874 012E     		cmp	r6, #1
 1679 0876 ECD1     		bne	.L33
  28:../Sources/LineDetectionDouble.c **** void findLine(volatile uint16_t* lineScanImage, volatile uint16_t* lineScanImage1, carState_s* carS
 1680              		.loc 1 28 0
 1681 0878 571E     		sub	r7, r2, #1
 508:../Sources/LineDetectionDouble.c **** 			detectedDoubleLines->line[detectedDoubleLines->numberOfLines].position = detectedTransitions->tr
 1682              		.loc 1 508 0
 1683 087a 3E78     		ldrb	r6, [r7]
 1684 087c 1901     		lsl	r1, r3, #4
 1685 087e 6654     		strb	r6, [r4, r1]
  28:../Sources/LineDetectionDouble.c **** void findLine(volatile uint16_t* lineScanImage, volatile uint16_t* lineScanImage1, carState_s* carS
 1686              		.loc 1 28 0
 1687 0880 561C     		add	r6, r2, #1
 509:../Sources/LineDetectionDouble.c **** 			detectedDoubleLines->line[detectedDoubleLines->numberOfLines].lineType = LEFT;
 1688              		.loc 1 509 0
 1689 0882 6118     		add	r1, r4, r1
 1690 0884 5746     		mov	r7, sl
 510:../Sources/LineDetectionDouble.c **** 			detectedDoubleLines->line[detectedDoubleLines->numberOfLines].derivative = detectedTransitions->
 1691              		.loc 1 510 0
 1692 0886 3688     		ldrh	r6, [r6]
 509:../Sources/LineDetectionDouble.c **** 			detectedDoubleLines->line[detectedDoubleLines->numberOfLines].lineType = LEFT;
 1693              		.loc 1 509 0
 1694 0888 4F70     		strb	r7, [r1, #1]
 1695 088a 4F46     		mov	r7, r9
 510:../Sources/LineDetectionDouble.c **** 			detectedDoubleLines->line[detectedDoubleLines->numberOfLines].derivative = detectedTransitions->
 1696              		.loc 1 510 0
 1697 088c 4E80     		strh	r6, [r1, #2]
 1698 088e 39B2     		sxth	r1, r7
 1699 0890 8946     		mov	r9, r1
 1700 0892 31B2     		sxth	r1, r6
 1701 0894 8945     		cmp	r9, r1
 1702 0896 00DA     		bge	.LCB1411
 1703 0898 81E0     		b	.L379	@long jump
 1704              	.LCB1411:
 517:../Sources/LineDetectionDouble.c **** 			detectedDoubleLines->numberOfLines++;		
 1705              		.loc 1 517 0
 1706 089a 0133     		add	r3, r3, #1
 1707 089c BEB2     		uxth	r6, r7
 1708 089e DBB2     		uxtb	r3, r3
 1709 08a0 B146     		mov	r9, r6
 1710 08a2 191C     		mov	r1, r3
 1711 08a4 D5E7     		b	.L33
 1712              	.L305:
 493:../Sources/LineDetectionDouble.c **** 		if (detectedTransitions->transition[k].direction == blackToWhite)
 1713              		.loc 1 493 0
 1714 08a6 1178     		ldrb	r1, [r2]
 1715 08a8 0029     		cmp	r1, #0
 1716 08aa 70D1     		bne	.L380
 495:../Sources/LineDetectionDouble.c **** 			detectedDoubleLines->line[detectedDoubleLines->numberOfLines].position = detectedTransitions->tr
 1717              		.loc 1 495 0
 1718 08ac 3678     		ldrb	r6, [r6]
 1719 08ae 3901     		lsl	r1, r7, #4
 1720 08b0 6654     		strb	r6, [r4, r1]
 496:../Sources/LineDetectionDouble.c **** 			detectedDoubleLines->line[detectedDoubleLines->numberOfLines].lineType = RIGHT;
 1721              		.loc 1 496 0
 1722 08b2 6346     		mov	r3, ip
 1723 08b4 6118     		add	r1, r4, r1
  28:../Sources/LineDetectionDouble.c **** void findLine(volatile uint16_t* lineScanImage, volatile uint16_t* lineScanImage1, carState_s* carS
 1724              		.loc 1 28 0
 1725 08b6 561C     		add	r6, r2, #1
 496:../Sources/LineDetectionDouble.c **** 			detectedDoubleLines->line[detectedDoubleLines->numberOfLines].lineType = RIGHT;
 1726              		.loc 1 496 0
 1727 08b8 4B70     		strb	r3, [r1, #1]
 497:../Sources/LineDetectionDouble.c **** 			detectedDoubleLines->line[detectedDoubleLines->numberOfLines].derivative = detectedTransitions->
 1728              		.loc 1 497 0
 1729 08ba 3388     		ldrh	r3, [r6]
 1730 08bc 06B2     		sxth	r6, r0
 1731 08be 4B80     		strh	r3, [r1, #2]
 1732 08c0 19B2     		sxth	r1, r3
 1733 08c2 8E42     		cmp	r6, r1
 1734 08c4 00DA     		bge	.L237
 1735 08c6 181C     		add	r0, r3, #0
 1736              	.L237:
 504:../Sources/LineDetectionDouble.c **** 			detectedDoubleLines->numberOfLines++;	
 1737              		.loc 1 504 0
 1738 08c8 0137     		add	r7, r7, #1
 1739 08ca FFB2     		uxtb	r7, r7
 1740 08cc 80B2     		uxth	r0, r0
 1741 08ce 3B1C     		mov	r3, r7
 1742 08d0 60E0     		b	.L279
 1743              	.L329:
 495:../Sources/LineDetectionDouble.c **** 			detectedDoubleLines->line[detectedDoubleLines->numberOfLines].position = detectedTransitions->tr
 1744              		.loc 1 495 0
 1745 08d2 D778     		ldrb	r7, [r2, #3]
  28:../Sources/LineDetectionDouble.c **** void findLine(volatile uint16_t* lineScanImage, volatile uint16_t* lineScanImage1, carState_s* carS
 1746              		.loc 1 28 0
 1747 08d4 0532     		add	r2, r2, #5
 495:../Sources/LineDetectionDouble.c **** 			detectedDoubleLines->line[detectedDoubleLines->numberOfLines].position = detectedTransitions->tr
 1748              		.loc 1 495 0
 1749 08d6 1901     		lsl	r1, r3, #4
 497:../Sources/LineDetectionDouble.c **** 			detectedDoubleLines->line[detectedDoubleLines->numberOfLines].derivative = detectedTransitions->
 1750              		.loc 1 497 0
 1751 08d8 1288     		ldrh	r2, [r2]
 495:../Sources/LineDetectionDouble.c **** 			detectedDoubleLines->line[detectedDoubleLines->numberOfLines].position = detectedTransitions->tr
 1752              		.loc 1 495 0
 1753 08da 6754     		strb	r7, [r4, r1]
 496:../Sources/LineDetectionDouble.c **** 			detectedDoubleLines->line[detectedDoubleLines->numberOfLines].lineType = RIGHT;
 1754              		.loc 1 496 0
 1755 08dc 6118     		add	r1, r4, r1
 1756 08de 6746     		mov	r7, ip
 1757 08e0 4F70     		strb	r7, [r1, #1]
 497:../Sources/LineDetectionDouble.c **** 			detectedDoubleLines->line[detectedDoubleLines->numberOfLines].derivative = detectedTransitions->
 1758              		.loc 1 497 0
 1759 08e2 4A80     		strh	r2, [r1, #2]
 1760 08e4 17B2     		sxth	r7, r2
 1761 08e6 01B2     		sxth	r1, r0
 1762 08e8 B942     		cmp	r1, r7
 1763 08ea 00DA     		bge	.L243
 1764 08ec 101C     		add	r0, r2, #0
 1765              	.L243:
 504:../Sources/LineDetectionDouble.c **** 			detectedDoubleLines->numberOfLines++;	
 1766              		.loc 1 504 0
 1767 08ee 0133     		add	r3, r3, #1
 1768 08f0 DBB2     		uxtb	r3, r3
 1769 08f2 80B2     		uxth	r0, r0
 1770 08f4 191C     		mov	r1, r3
 1771 08f6 321D     		add	r2, r6, #4
 491:../Sources/LineDetectionDouble.c **** 	for (uint8_t k = 0; k < detectedTransitions->numberOfTransitions && detectedDoubleLines->numberOfL
 1772              		.loc 1 491 0
 1773 08f8 1F2B     		cmp	r3, #31
 1774 08fa B8D9     		bls	.L36
 1775              	.L352:
 1776 08fc 0F1C     		mov	r7, r1
 1777              	.L328:
 1778 08fe C44E     		ldr	r6, .L399+16
 1779 0900 4A46     		mov	r2, r9
 1780 0902 A053     		strh	r0, [r4, r6]
 1781 0904 8020     		mov	r0, #128
 1782 0906 8300     		lsl	r3, r0, #2
 1783 0908 E754     		strb	r7, [r4, r3]
 1784              	.LBE115:
 1785              	.LBE121:
  65:../Sources/LineDetectionDouble.c **** 	if(cross_section_enable == 1)
 1786              		.loc 1 65 0
 1787 090a C24E     		ldr	r6, .L399+20
 1788 090c 8127     		mov	r7, #129
 1789 090e B900     		lsl	r1, r7, #2
 1790 0910 6252     		strh	r2, [r4, r1]
 1791 0912 3278     		ldrb	r2, [r6]
 1792 0914 012A     		cmp	r2, #1
 1793 0916 00D0     		beq	.LCB1494
 1794 0918 E2E5     		b	.L37	@long jump
 1795              	.LCB1494:
 1796              	.L368:
  67:../Sources/LineDetectionDouble.c **** 		lineCenterPrevious = carState->lineCenter;
 1797              		.loc 1 67 0
 1798 091a 0698     		ldr	r0, [sp, #24]
 1799 091c BE4B     		ldr	r3, .L399+24
 1800 091e 877A     		ldrb	r7, [r0, #10]
 1801 0920 1F70     		strb	r7, [r3]
  68:../Sources/LineDetectionDouble.c **** 		if (carState->edge == LEFT_EDGE || carState->edge == RIGHT_EDGE)
 1802              		.loc 1 68 0
 1803 0922 4679     		ldrb	r6, [r0, #5]
 1804 0924 711E     		sub	r1, r6, #1
 1805 0926 0129     		cmp	r1, #1
 1806 0928 00D9     		bls	.LCB1504
 1807 092a D9E5     		b	.L37	@long jump
 1808              	.LCB1504:
  70:../Sources/LineDetectionDouble.c **** 			edgePreviousValid = carState->edge;
 1809              		.loc 1 70 0
 1810 092c BB48     		ldr	r0, .L399+28
 1811 092e 0670     		strb	r6, [r0]
 1812 0930 D6E5     		b	.L37
 1813              	.L377:
 1814              	.LBB122:
 1815              	.LBB116:
 508:../Sources/LineDetectionDouble.c **** 			detectedDoubleLines->line[detectedDoubleLines->numberOfLines].position = detectedTransitions->tr
 1816              		.loc 1 508 0
 1817 0932 D178     		ldrb	r1, [r2, #3]
 1818 0934 1F01     		lsl	r7, r3, #4
 1819 0936 E155     		strb	r1, [r4, r7]
  28:../Sources/LineDetectionDouble.c **** void findLine(volatile uint16_t* lineScanImage, volatile uint16_t* lineScanImage1, carState_s* carS
 1820              		.loc 1 28 0
 1821 0938 0532     		add	r2, r2, #5
 509:../Sources/LineDetectionDouble.c **** 			detectedDoubleLines->line[detectedDoubleLines->numberOfLines].lineType = LEFT;
 1822              		.loc 1 509 0
 1823 093a 3F19     		add	r7, r7, r4
 1824 093c 5146     		mov	r1, sl
 1825 093e 7970     		strb	r1, [r7, #1]
 510:../Sources/LineDetectionDouble.c **** 			detectedDoubleLines->line[detectedDoubleLines->numberOfLines].derivative = detectedTransitions->
 1826              		.loc 1 510 0
 1827 0940 1188     		ldrh	r1, [r2]
 1828 0942 4A46     		mov	r2, r9
 1829 0944 7980     		strh	r1, [r7, #2]
 1830 0946 17B2     		sxth	r7, r2
 1831 0948 B946     		mov	r9, r7
 1832 094a 0FB2     		sxth	r7, r1
 1833 094c B945     		cmp	r9, r7
 1834 094e 48DB     		blt	.L330
 517:../Sources/LineDetectionDouble.c **** 			detectedDoubleLines->numberOfLines++;		
 1835              		.loc 1 517 0
 1836 0950 0133     		add	r3, r3, #1
 1837 0952 91B2     		uxth	r1, r2
 1838 0954 DBB2     		uxtb	r3, r3
 1839 0956 8946     		mov	r9, r1
 1840 0958 191C     		mov	r1, r3
 1841 095a 85E7     		b	.L280
 1842              	.LVL76:
 1843              	.L357:
 1844              	.LBE116:
 1845              	.LBE122:
 1846              	.LBB123:
 1847              	.LBB65:
 394:../Sources/LineDetectionDouble.c **** 			detectedTransitions->transition[detectedTransitions->numberOfTransitions].position = k;
 1848              		.loc 1 394 0
 1849 095c 9800     		lsl	r0, r3, #2
 1850 095e 8246     		mov	sl, r0
 1851 0960 4246     		mov	r2, r8
 395:../Sources/LineDetectionDouble.c **** 			detectedTransitions->transition[detectedTransitions->numberOfTransitions].direction = blackToWhi
 1852              		.loc 1 395 0
 1853 0962 B244     		add	sl, sl, r6
 394:../Sources/LineDetectionDouble.c **** 			detectedTransitions->transition[detectedTransitions->numberOfTransitions].position = k;
 1854              		.loc 1 394 0
 1855 0964 3254     		strb	r2, [r6, r0]
 398:../Sources/LineDetectionDouble.c **** 			detectedTransitions->numberOfTransitions++;
 1856              		.loc 1 398 0
 1857 0966 0133     		add	r3, r3, #1
 395:../Sources/LineDetectionDouble.c **** 			detectedTransitions->transition[detectedTransitions->numberOfTransitions].direction = blackToWhi
 1858              		.loc 1 395 0
 1859 0968 5046     		mov	r0, sl
 1860 096a 4270     		strb	r2, [r0, #1]
 396:../Sources/LineDetectionDouble.c **** 			detectedTransitions->transition[detectedTransitions->numberOfTransitions].derivative = derivativ
 1861              		.loc 1 396 0
 1862 096c 4180     		strh	r1, [r0, #2]
 398:../Sources/LineDetectionDouble.c **** 			detectedTransitions->numberOfTransitions++;
 1863              		.loc 1 398 0
 1864 096e DBB2     		uxtb	r3, r3
 1865 0970 FFF7BBFB 		bl	.L262	@ far jump
 1866              	.LVL77:
 1867              	.L359:
 1868              	.LBE65:
 1869              	.LBE123:
 1870              	.LBB124:
 1871              	.LBB72:
 394:../Sources/LineDetectionDouble.c **** 			detectedTransitions->transition[detectedTransitions->numberOfTransitions].position = k;
 1872              		.loc 1 394 0
 1873 0974 9100     		lsl	r1, r2, #2
 1874 0976 8C46     		mov	ip, r1
 1875 0978 4046     		mov	r0, r8
 395:../Sources/LineDetectionDouble.c **** 			detectedTransitions->transition[detectedTransitions->numberOfTransitions].direction = blackToWhi
 1876              		.loc 1 395 0
 1877 097a BC44     		add	ip, ip, r7
 394:../Sources/LineDetectionDouble.c **** 			detectedTransitions->transition[detectedTransitions->numberOfTransitions].position = k;
 1878              		.loc 1 394 0
 1879 097c 7854     		strb	r0, [r7, r1]
 395:../Sources/LineDetectionDouble.c **** 			detectedTransitions->transition[detectedTransitions->numberOfTransitions].direction = blackToWhi
 1880              		.loc 1 395 0
 1881 097e 6146     		mov	r1, ip
 1882 0980 4870     		strb	r0, [r1, #1]
 398:../Sources/LineDetectionDouble.c **** 			detectedTransitions->numberOfTransitions++;
 1883              		.loc 1 398 0
 1884 0982 0132     		add	r2, r2, #1
 396:../Sources/LineDetectionDouble.c **** 			detectedTransitions->transition[detectedTransitions->numberOfTransitions].derivative = derivativ
 1885              		.loc 1 396 0
 1886 0984 5946     		mov	r1, fp
 1887 0986 6046     		mov	r0, ip
 1888 0988 4180     		strh	r1, [r0, #2]
 398:../Sources/LineDetectionDouble.c **** 			detectedTransitions->numberOfTransitions++;
 1889              		.loc 1 398 0
 1890 098a D2B2     		uxtb	r2, r2
 1891 098c 2EE4     		b	.L254
 1892              	.LVL78:
 1893              	.L380:
 1894              	.LBE72:
 1895              	.LBE124:
 1896              	.LBB125:
 1897              	.LBB117:
 506:../Sources/LineDetectionDouble.c **** 		else if (detectedTransitions->transition[k].direction == whiteToBlack)
 1898              		.loc 1 506 0
 1899 098e 0129     		cmp	r1, #1
 1900 0990 00D1     		bne	.LCB1587
 1901 0992 F4E2     		b	.L381	@long jump
 1902              	.LCB1587:
 1903              	.L279:
 1904 0994 0432     		add	r2, r2, #4
 491:../Sources/LineDetectionDouble.c **** 	for (uint8_t k = 0; k < detectedTransitions->numberOfTransitions && detectedDoubleLines->numberOfL
 1905              		.loc 1 491 0
 1906 0996 1F2B     		cmp	r3, #31
 1907 0998 00D8     		bhi	.LCB1591
 1908 099a 39E7     		b	.L346	@long jump
 1909              	.LCB1591:
 1910 099c AFE7     		b	.L328
 1911              	.L379:
 1912 099e 371C     		add	r7, r6, #0
 517:../Sources/LineDetectionDouble.c **** 			detectedDoubleLines->numberOfLines++;		
 1913              		.loc 1 517 0
 1914 09a0 0133     		add	r3, r3, #1
 1915 09a2 BEB2     		uxth	r6, r7
 1916 09a4 DBB2     		uxtb	r3, r3
 1917 09a6 B146     		mov	r9, r6
 1918 09a8 191C     		mov	r1, r3
 1919 09aa 52E7     		b	.L33
 1920              	.L370:
 1921              	.LBE117:
 1922              	.LBE125:
  91:../Sources/LineDetectionDouble.c **** 		if (carState->lineDetectionState != STOPLINE_DETECTED)
 1923              		.loc 1 91 0
 1924 09ac 069E     		ldr	r6, [sp, #24]
 1925 09ae B378     		ldrb	r3, [r6, #2]
 1926 09b0 022B     		cmp	r3, #2
 1927 09b2 0FD0     		beq	.L1
  93:../Sources/LineDetectionDouble.c **** 			if(TFC_Ticker[3] < MAX_LOST_LINE_DURATION)
 1928              		.loc 1 93 0
 1929 09b4 9A4C     		ldr	r4, .L399+32
 1930 09b6 9B48     		ldr	r0, .L399+36
 1931 09b8 E568     		ldr	r5, [r4, #12]
 1932 09ba 8542     		cmp	r5, r0
 1933 09bc 00D9     		bls	.LCB1616
 1934 09be 8CE2     		b	.L44	@long jump
 1935              	.LCB1616:
  95:../Sources/LineDetectionDouble.c **** 				carState->lineDetectionState = LINE_TEMPORARILY_LOST;
 1936              		.loc 1 95 0
 1937 09c0 0123     		mov	r3, #1
 1938 09c2 B370     		strb	r3, [r6, #2]
  96:../Sources/LineDetectionDouble.c **** 				carState->detectedType = NONE;
 1939              		.loc 1 96 0
 1940 09c4 3771     		strb	r7, [r6, #4]
  97:../Sources/LineDetectionDouble.c **** 				carState->edge = NO_EDGE;
 1941              		.loc 1 97 0
 1942 09c6 7771     		strb	r7, [r6, #5]
  99:../Sources/LineDetectionDouble.c **** 				if(cross_section_enable == 1)
 1943              		.loc 1 99 0
 1944 09c8 012A     		cmp	r2, #1
 1945 09ca 03D1     		bne	.L1
 101:../Sources/LineDetectionDouble.c **** 					if(carState->crossSection == YES)
 1946              		.loc 1 101 0
 1947 09cc B779     		ldrb	r7, [r6, #6]
 1948 09ce 012F     		cmp	r7, #1
 1949 09d0 00D1     		bne	.LCB1625
 1950 09d2 0FE3     		b	.L382	@long jump
 1951              	.LCB1625:
 1952              	.L1:
 385:../Sources/LineDetectionDouble.c **** }
 1953              		.loc 1 385 0
 1954 09d4 17B0     		add	sp, sp, #92
 1955              		@ sp needed for prologue
 1956 09d6 3CBC     		pop	{r2, r3, r4, r5}
 1957 09d8 9046     		mov	r8, r2
 1958 09da 9946     		mov	r9, r3
 1959 09dc A246     		mov	sl, r4
 1960 09de AB46     		mov	fp, r5
 1961 09e0 F0BD     		pop	{r4, r5, r6, r7, pc}
 1962              	.L330:
 1963 09e2 0A1C     		add	r2, r1, #0
 1964              	.LBB126:
 1965              	.LBB118:
 517:../Sources/LineDetectionDouble.c **** 			detectedDoubleLines->numberOfLines++;		
 1966              		.loc 1 517 0
 1967 09e4 0133     		add	r3, r3, #1
 1968 09e6 91B2     		uxth	r1, r2
 1969 09e8 DBB2     		uxtb	r3, r3
 1970 09ea 8946     		mov	r9, r1
 1971 09ec 191C     		mov	r1, r3
 1972 09ee 3BE7     		b	.L280
 1973              	.LVL79:
 1974              	.L227:
 1975 09f0 331C     		mov	r3, r6
 1976              	.LBE118:
 1977              	.LBE126:
 1978              	.LBB127:
 133:../Sources/LineDetectionDouble.c **** 			bestTrack = detectedTracks.track[k];
 1979              		.loc 1 133 0
 1980 09f2 2A1C     		mov	r2, r5
 1981 09f4 43CA     		ldmia	r2!, {r0, r1, r6}
 1982 09f6 43C3     		stmia	r3!, {r0, r1, r6}
 1983 09f8 1168     		ldr	r1, [r2]
 1984 09fa 1960     		str	r1, [r3]
 1985 09fc 019E     		ldr	r6, [sp, #4]
 1986 09fe 7068     		ldr	r0, [r6, #4]
 1987 0a00 0890     		str	r0, [sp, #32]
 1988 0a02 04E6     		b	.L306
 1989              	.LVL80:
 1990              	.L211:
 1991              	.LBE127:
 1992              	.LBB128:
 145:../Sources/LineDetectionDouble.c **** 		else if (detectedDoubleLines.line[k].lineType == RIGHT && detectedDoubleLines.line[k].certainty >
 1993              		.loc 1 145 0
 1994 0a04 012E     		cmp	r6, #1
 1995 0a06 00D0     		beq	.LCB1679
 1996 0a08 77E6     		b	.L212	@long jump
 1997              	.LCB1679:
 1998 0a0a 4946     		mov	r1, r9
 1999 0a0c 0868     		ldr	r0, [r1]
 2000 0a0e 0799     		ldr	r1, [sp, #28]
 2001 0a10 FFF7FEFF 		bl	__aeabi_fcmpgt
 2002              	.LVL81:
 2003 0a14 0028     		cmp	r0, #0
 2004 0a16 00D1     		bne	.LCB1686
 2005 0a18 6FE6     		b	.L212	@long jump
 2006              	.LCB1686:
 147:../Sources/LineDetectionDouble.c **** 			bestRight = detectedDoubleLines.line[k];
 2007              		.loc 1 147 0
 2008 0a1a 039B     		ldr	r3, [sp, #12]
 2009 0a1c 221C     		mov	r2, r4
 2010 0a1e 43CA     		ldmia	r2!, {r0, r1, r6}
 2011 0a20 43C3     		stmia	r3!, {r0, r1, r6}
 2012 0a22 4846     		mov	r0, r9
 2013 0a24 0668     		ldr	r6, [r0]
 2014 0a26 1E60     		str	r6, [r3]
 2015 0a28 1599     		ldr	r1, [sp, #84]
 2016 0a2a 0791     		str	r1, [sp, #28]
 2017 0a2c 65E6     		b	.L212
 2018              	.LVL82:
 2019              	.L369:
 2020              	.LBE128:
  76:../Sources/LineDetectionDouble.c **** 			&& abs(carState->lineCenter) <= STRAIGHT_ERROR_THRESHOLD
 2021              		.loc 1 76 0
 2022 0a2e BE7A     		ldrb	r6, [r7, #10]
 2023 0a30 0636     		add	r6, r6, #6
 2024 0a32 F1B2     		uxtb	r1, r6
 2025 0a34 0C29     		cmp	r1, #12
 2026 0a36 00D9     		bls	.LCB1706
 2027 0a38 5BE5     		b	.L39	@long jump
 2028              	.LCB1706:
  77:../Sources/LineDetectionDouble.c **** 			&& carState->lineDetectionState == LINE_FOUND)
 2029              		.loc 1 77 0
 2030 0a3a B878     		ldrb	r0, [r7, #2]
 2031 0a3c 0028     		cmp	r0, #0
 2032 0a3e 00D0     		beq	.LCB1709
 2033 0a40 57E5     		b	.L39	@long jump
 2034              	.LCB1709:
  79:../Sources/LineDetectionDouble.c **** 		carState->carMode = STRAIGHT_MODE;
 2035              		.loc 1 79 0
 2036 0a42 0123     		mov	r3, #1
 2037 0a44 3B72     		strb	r3, [r7, #8]
 2038 0a46 54E5     		b	.L39
 2039              	.LVL83:
 2040              	.L257:
 2041              	.LBB129:
 2042              	.LBB73:
 400:../Sources/LineDetectionDouble.c **** 		else if (derivative[k] <= -derivativeThreshold)
 2043              		.loc 1 400 0
 2044 0a48 6D33     		add	r3, r3, #109
 2045 0a4a 01DB     		blt	.LCB1720
 2046 0a4c FFF707FC 		bl	.L258	@far jump
 2047              	.LCB1720:
 402:../Sources/LineDetectionDouble.c **** 			detectedTransitions->transition[detectedTransitions->numberOfTransitions].position = k;
 2048              		.loc 1 402 0
 2049 0a50 9100     		lsl	r1, r2, #2
 403:../Sources/LineDetectionDouble.c **** 			detectedTransitions->transition[detectedTransitions->numberOfTransitions].direction = whiteToBla
 2050              		.loc 1 403 0
 2051 0a52 CB19     		add	r3, r1, r7
 402:../Sources/LineDetectionDouble.c **** 			detectedTransitions->transition[detectedTransitions->numberOfTransitions].position = k;
 2052              		.loc 1 402 0
 2053 0a54 7854     		strb	r0, [r7, r1]
 403:../Sources/LineDetectionDouble.c **** 			detectedTransitions->transition[detectedTransitions->numberOfTransitions].direction = whiteToBla
 2054              		.loc 1 403 0
 2055 0a56 4946     		mov	r1, r9
 2056 0a58 9B46     		mov	fp, r3
 2057              	.LVL84:
 2058 0a5a 5970     		strb	r1, [r3, #1]
 404:../Sources/LineDetectionDouble.c **** 			detectedTransitions->transition[detectedTransitions->numberOfTransitions].derivative = (-derivat
 2059              		.loc 1 404 0
 2060 0a5c 049B     		ldr	r3, [sp, #16]
 406:../Sources/LineDetectionDouble.c **** 			detectedTransitions->numberOfTransitions++;
 2061              		.loc 1 406 0
 2062 0a5e 0132     		add	r2, r2, #1
 404:../Sources/LineDetectionDouble.c **** 			detectedTransitions->transition[detectedTransitions->numberOfTransitions].derivative = (-derivat
 2063              		.loc 1 404 0
 2064 0a60 5942     		neg	r1, r3
 2065 0a62 5B46     		mov	r3, fp
 2066 0a64 5980     		strh	r1, [r3, #2]
 406:../Sources/LineDetectionDouble.c **** 			detectedTransitions->numberOfTransitions++;
 2067              		.loc 1 406 0
 2068 0a66 D2B2     		uxtb	r2, r2
 2069 0a68 FFF7F9FB 		bl	.L258	@ far jump
 2070              	.LVL85:
 2071              	.L265:
 2072              	.LBE73:
 2073              	.LBE129:
 2074              	.LBB130:
 2075              	.LBB66:
 400:../Sources/LineDetectionDouble.c **** 		else if (derivative[k] <= -derivativeThreshold)
 2076              		.loc 1 400 0
 2077 0a6c 4A45     		cmp	r2, r9
 2078 0a6e 01DB     		blt	.LCB1745
 2079 0a70 FFF774FB 		bl	.L266	@far jump
 2080              	.LCB1745:
 402:../Sources/LineDetectionDouble.c **** 			detectedTransitions->transition[detectedTransitions->numberOfTransitions].position = k;
 2081              		.loc 1 402 0
 2082 0a74 9800     		lsl	r0, r3, #2
 2083 0a76 8246     		mov	sl, r0
 403:../Sources/LineDetectionDouble.c **** 			detectedTransitions->transition[detectedTransitions->numberOfTransitions].direction = whiteToBla
 2084              		.loc 1 403 0
 2085 0a78 B244     		add	sl, sl, r6
 402:../Sources/LineDetectionDouble.c **** 			detectedTransitions->transition[detectedTransitions->numberOfTransitions].position = k;
 2086              		.loc 1 402 0
 2087 0a7a 3154     		strb	r1, [r6, r0]
 403:../Sources/LineDetectionDouble.c **** 			detectedTransitions->transition[detectedTransitions->numberOfTransitions].direction = whiteToBla
 2088              		.loc 1 403 0
 2089 0a7c 5246     		mov	r2, sl
 2090 0a7e 5846     		mov	r0, fp
 2091 0a80 5070     		strb	r0, [r2, #1]
 404:../Sources/LineDetectionDouble.c **** 			detectedTransitions->transition[detectedTransitions->numberOfTransitions].derivative = (-derivat
 2092              		.loc 1 404 0
 2093 0a82 0598     		ldr	r0, [sp, #20]
 406:../Sources/LineDetectionDouble.c **** 			detectedTransitions->numberOfTransitions++;
 2094              		.loc 1 406 0
 2095 0a84 0133     		add	r3, r3, #1
 404:../Sources/LineDetectionDouble.c **** 			detectedTransitions->transition[detectedTransitions->numberOfTransitions].derivative = (-derivat
 2096              		.loc 1 404 0
 2097 0a86 4242     		neg	r2, r0
 2098 0a88 5046     		mov	r0, sl
 2099 0a8a 4280     		strh	r2, [r0, #2]
 406:../Sources/LineDetectionDouble.c **** 			detectedTransitions->numberOfTransitions++;
 2100              		.loc 1 406 0
 2101 0a8c DBB2     		uxtb	r3, r3
 2102 0a8e FFF765FB 		bl	.L266	@ far jump
 2103              	.LVL86:
 2104              	.L222:
 2105              	.LBE66:
 2106              	.LBE130:
 2107              	.LBB131:
 145:../Sources/LineDetectionDouble.c **** 		else if (detectedDoubleLines.line[k].lineType == RIGHT && detectedDoubleLines.line[k].certainty >
 2108              		.loc 1 145 0
 2109 0a92 0129     		cmp	r1, #1
 2110 0a94 00D0     		beq	.LCB1769
 2111 0a96 7EE6     		b	.L223	@long jump
 2112              	.LCB1769:
 2113 0a98 4046     		mov	r0, r8
 2114 0a9a 0068     		ldr	r0, [r0]
 2115 0a9c 0799     		ldr	r1, [sp, #28]
 2116 0a9e FFF7FEFF 		bl	__aeabi_fcmpgt
 2117              	.LVL87:
 2118 0aa2 0028     		cmp	r0, #0
 2119 0aa4 00D1     		bne	.LCB1776
 2120 0aa6 76E6     		b	.L223	@long jump
 2121              	.LCB1776:
 147:../Sources/LineDetectionDouble.c **** 			bestRight = detectedDoubleLines.line[k];
 2122              		.loc 1 147 0
 2123 0aa8 039B     		ldr	r3, [sp, #12]
  28:../Sources/LineDetectionDouble.c **** void findLine(volatile uint16_t* lineScanImage, volatile uint16_t* lineScanImage1, carState_s* carS
 2124              		.loc 1 28 0
 2125 0aaa 0F36     		add	r6, r6, #15
 147:../Sources/LineDetectionDouble.c **** 			bestRight = detectedDoubleLines.line[k];
 2126              		.loc 1 147 0
 2127 0aac 07CE     		ldmia	r6!, {r0, r1, r2}
 2128 0aae 07C3     		stmia	r3!, {r0, r1, r2}
 2129 0ab0 3668     		ldr	r6, [r6]
 2130 0ab2 1E60     		str	r6, [r3]
 2131 0ab4 159F     		ldr	r7, [sp, #84]
 2132 0ab6 4E46     		mov	r6, r9
 2133 0ab8 0797     		str	r7, [sp, #28]
 139:../Sources/LineDetectionDouble.c **** 	for (uint8_t k = 0; k < detectedDoubleLines.numberOfLines; k++)
 2134              		.loc 1 139 0
 2135 0aba 059A     		ldr	r2, [sp, #20]
 2136 0abc 4746     		mov	r7, r8
 2137 0abe 1037     		add	r7, r7, #16
 2138 0ac0 1036     		add	r6, r6, #16
 2139 0ac2 0197     		str	r7, [sp, #4]
 2140 0ac4 9642     		cmp	r6, r2
 2141 0ac6 00D0     		beq	.LCB1793
 2142 0ac8 6EE6     		b	.L59	@long jump
 2143              	.LCB1793:
 2144              	.L375:
 2145 0aca 0998     		ldr	r0, [sp, #36]
 2146 0acc 5B46     		mov	r3, fp
 2147 0ace 5746     		mov	r7, sl
 2148 0ad0 0193     		str	r3, [sp, #4]
 2149 0ad2 8346     		mov	fp, r0
 2150              	.L322:
 2151              	.LBE131:
 152:../Sources/LineDetectionDouble.c **** 	if (bestLeft.certainty > MIN_CERTAINTY)
 2152              		.loc 1 152 0
 2153 0ad4 0498     		ldr	r0, [sp, #16]
 2154 0ad6 5449     		ldr	r1, .L399+40
 2155 0ad8 FFF7FEFF 		bl	__aeabi_fcmpgt
 2156              	.LVL88:
 2157 0adc 0028     		cmp	r0, #0
 2158 0ade 05D0     		beq	.L54
 153:../Sources/LineDetectionDouble.c **** 		previousLeft = bestLeft;
 2159              		.loc 1 153 0
 2160 0ae0 524E     		ldr	r6, .L399+44
 2161 0ae2 0EAA     		add	r2, sp, #56
 2162 0ae4 0BCA     		ldmia	r2!, {r0, r1, r3}
 2163 0ae6 0BC6     		stmia	r6!, {r0, r1, r3}
 2164 0ae8 1368     		ldr	r3, [r2]
 2165 0aea 3360     		str	r3, [r6]
 2166              	.L54:
 154:../Sources/LineDetectionDouble.c **** 	if (bestRight.certainty > MIN_CERTAINTY)
 2167              		.loc 1 154 0
 2168 0aec 0798     		ldr	r0, [sp, #28]
 2169 0aee 4E49     		ldr	r1, .L399+40
 2170 0af0 FFF7FEFF 		bl	__aeabi_fcmpgt
 2171              	.LVL89:
 2172 0af4 0028     		cmp	r0, #0
 2173 0af6 05D0     		beq	.L61
 155:../Sources/LineDetectionDouble.c **** 		previousRight = bestRight;
 2174              		.loc 1 155 0
 2175 0af8 4D4E     		ldr	r6, .L399+48
 2176 0afa 12A8     		add	r0, sp, #72
 2177 0afc 0EC8     		ldmia	r0!, {r1, r2, r3}
 2178 0afe 0EC6     		stmia	r6!, {r1, r2, r3}
 2179 0b00 0168     		ldr	r1, [r0]
 2180 0b02 3160     		str	r1, [r6]
 2181              	.L61:
 159:../Sources/LineDetectionDouble.c **** 	if (bestTrack.certainty > MIN_CERTAINTY)
 2182              		.loc 1 159 0
 2183 0b04 0898     		ldr	r0, [sp, #32]
 2184 0b06 4849     		ldr	r1, .L399+40
 2185 0b08 FFF7FEFF 		bl	__aeabi_fcmpgt
 2186              	.LVL90:
 2187 0b0c 0028     		cmp	r0, #0
 2188 0b0e 00D1     		bne	.LCB1837
 2189 0b10 98E0     		b	.L310	@long jump
 2190              	.LCB1837:
 161:../Sources/LineDetectionDouble.c **** 		previousTrack = bestTrack;
 2191              		.loc 1 161 0
 2192 0b12 484F     		ldr	r7, .L399+52
 2193 0b14 0198     		ldr	r0, [sp, #4]
 2194 0b16 3A1C     		mov	r2, r7
 2195 0b18 70C8     		ldmia	r0!, {r4, r5, r6}
 2196 0b1a 70C2     		stmia	r2!, {r4, r5, r6}
 2197 0b1c 0468     		ldr	r4, [r0]
 2198 0b1e 1460     		str	r4, [r2]
 163:../Sources/LineDetectionDouble.c **** 		carState->lineCenter = bestTrack.center;
 2199              		.loc 1 163 0
 2200 0b20 069E     		ldr	r6, [sp, #24]
 2201 0b22 019D     		ldr	r5, [sp, #4]
 165:../Sources/LineDetectionDouble.c **** 		if (carState->lineDetectionState != STOPLINE_DETECTED)
 2202              		.loc 1 165 0
 2203 0b24 B378     		ldrb	r3, [r6, #2]
 163:../Sources/LineDetectionDouble.c **** 		carState->lineCenter = bestTrack.center;
 2204              		.loc 1 163 0
 2205 0b26 E978     		ldrb	r1, [r5, #3]
 2206 0b28 B172     		strb	r1, [r6, #10]
 165:../Sources/LineDetectionDouble.c **** 		if (carState->lineDetectionState != STOPLINE_DETECTED)
 2207              		.loc 1 165 0
 2208 0b2a 022B     		cmp	r3, #2
 2209 0b2c 05D0     		beq	.L65
 167:../Sources/LineDetectionDouble.c **** 			carState->lineDetectionState = LINE_FOUND;
 2210              		.loc 1 167 0
 2211 0b2e 0027     		mov	r7, #0
 168:../Sources/LineDetectionDouble.c **** 			carState->detectedType = DOUBLE_EDGE;
 2212              		.loc 1 168 0
 2213 0b30 0222     		mov	r2, #2
 169:../Sources/LineDetectionDouble.c **** 			carState->edge = BOTH_EDGE;
 2214              		.loc 1 169 0
 2215 0b32 0320     		mov	r0, #3
 167:../Sources/LineDetectionDouble.c **** 			carState->lineDetectionState = LINE_FOUND;
 2216              		.loc 1 167 0
 2217 0b34 B770     		strb	r7, [r6, #2]
 168:../Sources/LineDetectionDouble.c **** 			carState->detectedType = DOUBLE_EDGE;
 2218              		.loc 1 168 0
 2219 0b36 3271     		strb	r2, [r6, #4]
 169:../Sources/LineDetectionDouble.c **** 			carState->edge = BOTH_EDGE;
 2220              		.loc 1 169 0
 2221 0b38 7071     		strb	r0, [r6, #5]
 2222              	.L65:
 172:../Sources/LineDetectionDouble.c **** 		if(cross_section_enable == 1)
 2223              		.loc 1 172 0
 2224 0b3a 364C     		ldr	r4, .L399+20
 2225 0b3c 2578     		ldrb	r5, [r4]
 2226 0b3e 012D     		cmp	r5, #1
 2227 0b40 00D1     		bne	.LCB1863
 2228 0b42 32E2     		b	.L383	@long jump
 2229              	.LCB1863:
 2230              	.L66:
 181:../Sources/LineDetectionDouble.c **** 		if (bestTrack.width >= TRACK_WIDTH_MIN && bestTrack.width <= TRACK_WIDTH_MAX)
 2231              		.loc 1 181 0
 2232 0b44 019F     		ldr	r7, [sp, #4]
 2233 0b46 BE78     		ldrb	r6, [r7, #2]
 2234 0b48 301C     		mov	r0, r6
 2235 0b4a FFF7FEFF 		bl	__aeabi_i2d
 2236              	.LVL91:
 2237 0b4e 2D4B     		ldr	r3, .L399+4
 2238 0b50 2B4A     		ldr	r2, .L399
 2239 0b52 041C     		mov	r4, r0
 2240 0b54 0D1C     		mov	r5, r1
 2241 0b56 FFF7FEFF 		bl	__aeabi_dcmpge
 2242              	.LVL92:
 2243 0b5a 0028     		cmp	r0, #0
 2244 0b5c 09D0     		beq	.L111
 181:../Sources/LineDetectionDouble.c **** 		if (bestTrack.width >= TRACK_WIDTH_MIN && bestTrack.width <= TRACK_WIDTH_MAX)
 2245              		.loc 1 181 0 is_stmt 0
 2246 0b5e 201C     		mov	r0, r4
 2247 0b60 291C     		mov	r1, r5
 2248 0b62 294A     		ldr	r2, .L399+8
 2249 0b64 294B     		ldr	r3, .L399+12
 2250 0b66 FFF7FEFF 		bl	__aeabi_dcmple
 2251              	.LVL93:
 2252 0b6a 0028     		cmp	r0, #0
 2253 0b6c 01D0     		beq	.L111
 183:../Sources/LineDetectionDouble.c **** 			trackWidthAverage = bestTrack.width;
 2254              		.loc 1 183 0 is_stmt 1
 2255 0b6e 324A     		ldr	r2, .L399+56
 2256 0b70 1660     		str	r6, [r2]
 2257              	.L111:
 347:../Sources/LineDetectionDouble.c **** 			TFC_Ticker[3] = 0;
 2258              		.loc 1 347 0
 2259 0b72 2B49     		ldr	r1, .L399+32
 2260 0b74 0020     		mov	r0, #0
 2261 0b76 C860     		str	r0, [r1, #12]
 2262 0b78 2CE7     		b	.L1
 2263              	.L38:
  81:../Sources/LineDetectionDouble.c **** 	else if(carState->carMode == STRAIGHT_MODE
 2264              		.loc 1 81 0
 2265 0b7a 012B     		cmp	r3, #1
 2266 0b7c 00D0     		beq	.LCB1896
 2267 0b7e B8E4     		b	.L39	@long jump
 2268              	.LCB1896:
  82:../Sources/LineDetectionDouble.c **** 				&& (carState->lineDistance <=STRAIGHT_DISTANCE_THRESHOLD
 2269              		.loc 1 82 0
 2270 0b80 069E     		ldr	r6, [sp, #24]
 2271 0b82 317B     		ldrb	r1, [r6, #12]
 2272 0b84 5129     		cmp	r1, #81
 2273 0b86 00D9     		bls	.LCB1900
 2274 0b88 B1E1     		b	.L384	@long jump
 2275              	.LCB1900:
 2276              	.L40:
  85:../Sources/LineDetectionDouble.c **** 		carState->carMode = NORMAL_MODE;
 2277              		.loc 1 85 0
 2278 0b8a 0698     		ldr	r0, [sp, #24]
 2279 0b8c 0021     		mov	r1, #0
  89:../Sources/LineDetectionDouble.c **** 	if (detectedTracks.numberOfTracks == 0 && detectedDoubleLines.numberOfLines == 0)
 2280              		.loc 1 89 0
 2281 0b8e 8027     		mov	r7, #128
  85:../Sources/LineDetectionDouble.c **** 		carState->carMode = NORMAL_MODE;
 2282              		.loc 1 85 0
 2283 0b90 0172     		strb	r1, [r0, #8]
  89:../Sources/LineDetectionDouble.c **** 	if (detectedTracks.numberOfTracks == 0 && detectedDoubleLines.numberOfLines == 0)
 2284              		.loc 1 89 0
 2285 0b92 BF00     		lsl	r7, r7, #2
 2286 0b94 EE5D     		ldrb	r6, [r5, r7]
 2287 0b96 002E     		cmp	r6, #0
 2288 0b98 00D1     		bne	.LCB1909
 2289 0b9a B0E4     		b	.L385	@long jump
 2290              	.LCB1909:
 2291              	.L119:
 2292 0b9c 264A     		ldr	r2, .L399+56
 2293 0b9e 2549     		ldr	r1, .L399+52
 2294 0ba0 0026     		mov	r6, #0
 2295 0ba2 9346     		mov	fp, r2
 2296 0ba4 8946     		mov	r9, r1
 2297              	.LBB132:
 2298              	.LBB133:
 524:../Sources/LineDetectionDouble.c **** 	for (uint8_t k = 0; k < detectedTracks->numberOfTracks; k++)
 2299              		.loc 1 524 0
 2300 0ba6 BA46     		mov	sl, r7
 2301              	.L41:
 526:../Sources/LineDetectionDouble.c **** 		detectedTracks->track[k].widthCertainty = getProbability(detectedTracks->track[k].width, TRACK_WI
 2302              		.loc 1 526 0
 2303 0ba8 3001     		lsl	r0, r6, #4
 2304 0baa 2F18     		add	r7, r5, r0
 2305 0bac 0223     		mov	r3, #2
 2306 0bae 5946     		mov	r1, fp
 2307 0bb0 0022     		mov	r2, #0
 2308 0bb2 F856     		ldrsb	r0, [r7, r3]
 2309 0bb4 8A56     		ldrsb	r2, [r1, r2]
 2310 0bb6 2149     		ldr	r1, .L399+60
 2311 0bb8 FFF7FEFF 		bl	getProbability
 2312              	.LVL94:
 2313 0bbc B860     		str	r0, [r7, #8]
 528:../Sources/LineDetectionDouble.c **** 		detectedTracks->track[k].relativePositionCertainty = getProbability(previousTrack->center - detec
 2314              		.loc 1 528 0
 2315 0bbe 4846     		mov	r0, r9
 2316 0bc0 C178     		ldrb	r1, [r0, #3]
 2317 0bc2 FB78     		ldrb	r3, [r7, #3]
 524:../Sources/LineDetectionDouble.c **** 	for (uint8_t k = 0; k < detectedTracks->numberOfTracks; k++)
 2318              		.loc 1 524 0
 2319 0bc4 0136     		add	r6, r6, #1
 528:../Sources/LineDetectionDouble.c **** 		detectedTracks->track[k].relativePositionCertainty = getProbability(previousTrack->center - detec
 2320              		.loc 1 528 0
 2321 0bc6 CA1A     		sub	r2, r1, r3
 2322 0bc8 50B2     		sxtb	r0, r2
 2323 0bca 1D49     		ldr	r1, .L399+64
 2324 0bcc 0022     		mov	r2, #0
 2325 0bce FFF7FEFF 		bl	getProbability
 2326              	.LVL95:
 531:../Sources/LineDetectionDouble.c **** 		detectedTracks->track[k].certainty = detectedTracks->track[k].widthCertainty * detectedTracks->tr
 2327              		.loc 1 531 0
 2328 0bd2 B968     		ldr	r1, [r7, #8]
 528:../Sources/LineDetectionDouble.c **** 		detectedTracks->track[k].relativePositionCertainty = getProbability(previousTrack->center - detec
 2329              		.loc 1 528 0
 2330 0bd4 F860     		str	r0, [r7, #12]
 531:../Sources/LineDetectionDouble.c **** 		detectedTracks->track[k].certainty = detectedTracks->track[k].widthCertainty * detectedTracks->tr
 2331              		.loc 1 531 0
 2332 0bd6 FFF7FEFF 		bl	__aeabi_fmul
 2333              	.LVL96:
 2334 0bda 7860     		str	r0, [r7, #4]
 524:../Sources/LineDetectionDouble.c **** 	for (uint8_t k = 0; k < detectedTracks->numberOfTracks; k++)
 2335              		.loc 1 524 0
 2336 0bdc 5746     		mov	r7, sl
 2337 0bde E85D     		ldrb	r0, [r5, r7]
 2338 0be0 F6B2     		uxtb	r6, r6
 2339              	.LVL97:
 2340 0be2 8642     		cmp	r6, r0
 2341 0be4 E0D3     		bcc	.L41
 2342 0be6 8021     		mov	r1, #128
 2343 0be8 8B00     		lsl	r3, r1, #2
 2344 0bea E75C     		ldrb	r7, [r4, r3]
 2345              	.LVL98:
 2346 0bec 8346     		mov	fp, r0
 2347              	.LBE133:
 2348              	.LBE132:
 2349              	.LBB134:
 2350              	.LBB94:
 539:../Sources/LineDetectionDouble.c **** 		for (uint8_t k = 0; k < detectedDoubleLines->numberOfLines; k++)
 2351              		.loc 1 539 0
 2352 0bee 002F     		cmp	r7, #0
 2353 0bf0 00D0     		beq	.LCB1965
 2354 0bf2 88E4     		b	.L42	@long jump
 2355              	.LCB1965:
 2356 0bf4 ECE4     		b	.L45
 2357              	.LVL99:
 2358              	.L362:
 2359 0bf6 011C     		mov	r1, r0
 2360              	.LVL100:
 2361 0bf8 FFF790FB 		bl	.L350	@ far jump
 2362              	.L400:
 2363 0bfc C046C046 		.align	3
 2364              	.L399:
 2365 0c00 00000000 		.word	0
 2366 0c04 00E05340 		.word	1079238656
 2367 0c08 00000000 		.word	0
 2368 0c0c 00906040 		.word	1080070144
 2369 0c10 02020000 		.word	514
 2370 0c14 00000000 		.word	cross_section_enable
 2371 0c18 00000000 		.word	.LANCHOR7
 2372 0c1c 00000000 		.word	.LANCHOR8
 2373 0c20 00000000 		.word	TFC_Ticker
 2374 0c24 87130000 		.word	4999
 2375 0c28 CDCC4C3E 		.word	1045220557
 2376 0c2c 00000000 		.word	.LANCHOR12
 2377 0c30 00000000 		.word	.LANCHOR13
 2378 0c34 00000000 		.word	.LANCHOR11
 2379 0c38 00000000 		.word	.LANCHOR10
 2380 0c3c 0000A040 		.word	1084227584
 2381 0c40 00002041 		.word	1092616192
 2382              	.L310:
 2383              	.LBE94:
 2384              	.LBE134:
 191:../Sources/LineDetectionDouble.c **** 		bestTrack.widthCertainty = 0;
 2385              		.loc 1 191 0
 2386 0c44 019A     		ldr	r2, [sp, #4]
 2387 0c46 0023     		mov	r3, #0
 2388              	.LBB135:
 193:../Sources/LineDetectionDouble.c **** 		for (uint8_t k = 0; k < detectedTracks.numberOfTracks; k++)
 2389              		.loc 1 193 0
 2390 0c48 5E46     		mov	r6, fp
 2391              	.LBE135:
 191:../Sources/LineDetectionDouble.c **** 		bestTrack.widthCertainty = 0;
 2392              		.loc 1 191 0
 2393 0c4a 9360     		str	r3, [r2, #8]
 2394              	.LVL101:
 2395              	.LBB136:
 193:../Sources/LineDetectionDouble.c **** 		for (uint8_t k = 0; k < detectedTracks.numberOfTracks; k++)
 2396              		.loc 1 193 0
 2397 0c4c 002E     		cmp	r6, #0
 2398 0c4e 00D1     		bne	.LCB2011
 2399 0c50 9AE0     		b	.L70	@long jump
 2400              	.LCB2011:
  28:../Sources/LineDetectionDouble.c **** void findLine(volatile uint16_t* lineScanImage, volatile uint16_t* lineScanImage1, carState_s* carS
 2401              		.loc 1 28 0
 2402 0c52 5A46     		mov	r2, fp
 2403 0c54 0820     		mov	r0, #8
 2404 0c56 013A     		sub	r2, r2, #1
 2405 0c58 4119     		add	r1, r0, r5
 2406 0c5a 2E1C     		mov	r6, r5
 2407 0c5c D0B2     		uxtb	r0, r2
 2408 0c5e 8A46     		mov	sl, r1
 2409 0c60 1836     		add	r6, r6, #24
 2410 0c62 0101     		lsl	r1, r0, #4
 2411 0c64 7618     		add	r6, r6, r1
 2412 0c66 5246     		mov	r2, sl
 2413              	.LBE136:
 2414              	.LBB137:
 2415 0c68 9846     		mov	r8, r3
 2416 0c6a B31A     		sub	r3, r6, r2
 2417 0c6c 103B     		sub	r3, r3, #16
 2418 0c6e D806     		lsl	r0, r3, #27
 2419 0c70 C10F     		lsr	r1, r0, #31
 2420 0c72 8B46     		mov	fp, r1
 2421              	.LBE137:
 2422              	.LBB138:
 195:../Sources/LineDetectionDouble.c **** 			if (bestTrack.widthCertainty < detectedTracks.track[k].widthCertainty)
 2423              		.loc 1 195 0
 2424 0c74 1068     		ldr	r0, [r2]
 2425 0c76 4146     		mov	r1, r8
  28:../Sources/LineDetectionDouble.c **** void findLine(volatile uint16_t* lineScanImage, volatile uint16_t* lineScanImage1, carState_s* carS
 2426              		.loc 1 28 0
 2427 0c78 B146     		mov	r9, r6
 195:../Sources/LineDetectionDouble.c **** 			if (bestTrack.widthCertainty < detectedTracks.track[k].widthCertainty)
 2428              		.loc 1 195 0
 2429 0c7a FFF7FEFF 		bl	__aeabi_fcmpgt
 2430              	.LVL102:
 2431 0c7e 0028     		cmp	r0, #0
 2432 0c80 79D1     		bne	.L204
 2433              	.L311:
 2434              	.LVL103:
 2435 0c82 5546     		mov	r5, sl
 2436 0c84 1035     		add	r5, r5, #16
 193:../Sources/LineDetectionDouble.c **** 		for (uint8_t k = 0; k < detectedTracks.numberOfTracks; k++)
 2437              		.loc 1 193 0
 2438 0c86 4D45     		cmp	r5, r9
 2439 0c88 36D0     		beq	.L320
 2440 0c8a 5846     		mov	r0, fp
 2441 0c8c 0028     		cmp	r0, #0
 2442 0c8e 09D0     		beq	.L341
 195:../Sources/LineDetectionDouble.c **** 			if (bestTrack.widthCertainty < detectedTracks.track[k].widthCertainty)
 2443              		.loc 1 195 0
 2444 0c90 2868     		ldr	r0, [r5]
 2445 0c92 4146     		mov	r1, r8
 2446 0c94 FFF7FEFF 		bl	__aeabi_fcmpgt
 2447              	.LVL104:
 2448 0c98 0028     		cmp	r0, #0
 2449 0c9a 00D0     		beq	.LCB2055
 2450 0c9c 07E1     		b	.L386	@long jump
 2451              	.LCB2055:
 2452              	.L321:
 2453 0c9e 1035     		add	r5, r5, #16
 193:../Sources/LineDetectionDouble.c **** 		for (uint8_t k = 0; k < detectedTracks.numberOfTracks; k++)
 2454              		.loc 1 193 0
 2455 0ca0 4D45     		cmp	r5, r9
 2456 0ca2 29D0     		beq	.L320
 2457              	.L341:
 2458 0ca4 381C     		mov	r0, r7
 2459 0ca6 019E     		ldr	r6, [sp, #4]
 2460 0ca8 4746     		mov	r7, r8
 2461 0caa 8046     		mov	r8, r0
 2462              	.L73:
 195:../Sources/LineDetectionDouble.c **** 			if (bestTrack.widthCertainty < detectedTracks.track[k].widthCertainty)
 2463              		.loc 1 195 0
 2464 0cac 2868     		ldr	r0, [r5]
 2465 0cae 391C     		add	r1, r7, #0
 2466 0cb0 FFF7FEFF 		bl	__aeabi_fcmpgt
 2467              	.LVL105:
 2468 0cb4 0028     		cmp	r0, #0
 2469 0cb6 07D0     		beq	.L71
  28:../Sources/LineDetectionDouble.c **** void findLine(volatile uint16_t* lineScanImage, volatile uint16_t* lineScanImage1, carState_s* carS
 2470              		.loc 1 28 0
 2471 0cb8 2B1C     		mov	r3, r5
 2472 0cba 083B     		sub	r3, r3, #8
 197:../Sources/LineDetectionDouble.c **** 				bestTrack = detectedTracks.track[k];
 2473              		.loc 1 197 0
 2474 0cbc 321C     		mov	r2, r6
 2475 0cbe 83CB     		ldmia	r3!, {r0, r1, r7}
 2476 0cc0 83C2     		stmia	r2!, {r0, r1, r7}
 2477 0cc2 1F68     		ldr	r7, [r3]
 2478 0cc4 1760     		str	r7, [r2]
 2479 0cc6 B768     		ldr	r7, [r6, #8]
 2480              	.L71:
 2481 0cc8 1021     		mov	r1, #16
 2482 0cca 4819     		add	r0, r1, r5
 2483 0ccc 8246     		mov	sl, r0
 195:../Sources/LineDetectionDouble.c **** 			if (bestTrack.widthCertainty < detectedTracks.track[k].widthCertainty)
 2484              		.loc 1 195 0
 2485 0cce 391C     		add	r1, r7, #0
 2486 0cd0 2869     		ldr	r0, [r5, #16]
 2487 0cd2 FFF7FEFF 		bl	__aeabi_fcmpgt
 2488              	.LVL106:
 2489 0cd6 0028     		cmp	r0, #0
 2490 0cd8 06D0     		beq	.L312
  28:../Sources/LineDetectionDouble.c **** void findLine(volatile uint16_t* lineScanImage, volatile uint16_t* lineScanImage1, carState_s* carS
 2491              		.loc 1 28 0
 2492 0cda 0835     		add	r5, r5, #8
 197:../Sources/LineDetectionDouble.c **** 				bestTrack = detectedTracks.track[k];
 2493              		.loc 1 197 0
 2494 0cdc 331C     		mov	r3, r6
 2495 0cde 83CD     		ldmia	r5!, {r0, r1, r7}
 2496 0ce0 83C3     		stmia	r3!, {r0, r1, r7}
 2497 0ce2 2D68     		ldr	r5, [r5]
 2498 0ce4 1D60     		str	r5, [r3]
 2499 0ce6 B768     		ldr	r7, [r6, #8]
 2500              	.L312:
 2501 0ce8 5546     		mov	r5, sl
 2502 0cea 1035     		add	r5, r5, #16
 193:../Sources/LineDetectionDouble.c **** 		for (uint8_t k = 0; k < detectedTracks.numberOfTracks; k++)
 2503              		.loc 1 193 0
 2504 0cec 4D45     		cmp	r5, r9
 2505 0cee DDD1     		bne	.L73
 2506 0cf0 4246     		mov	r2, r8
 2507 0cf2 0196     		str	r6, [sp, #4]
 2508 0cf4 B846     		mov	r8, r7
 2509 0cf6 171C     		mov	r7, r2
 2510              	.L320:
 2511              	.LBE138:
 200:../Sources/LineDetectionDouble.c **** 		if (bestTrack.widthCertainty > MIN_CERTAINTY)
 2512              		.loc 1 200 0
 2513 0cf8 4046     		mov	r0, r8
 2514 0cfa CE49     		ldr	r1, .L401
 2515 0cfc FFF7FEFF 		bl	__aeabi_fcmpgt
 2516              	.LVL107:
 2517 0d00 0028     		cmp	r0, #0
 2518 0d02 41D0     		beq	.L70
 202:../Sources/LineDetectionDouble.c **** 			previousTrack = bestTrack;
 2519              		.loc 1 202 0
 2520 0d04 CC4E     		ldr	r6, .L401+4
 2521 0d06 019A     		ldr	r2, [sp, #4]
 2522 0d08 371C     		mov	r7, r6
 2523 0d0a 70CA     		ldmia	r2!, {r4, r5, r6}
 2524 0d0c 70C7     		stmia	r7!, {r4, r5, r6}
 2525 0d0e 1468     		ldr	r4, [r2]
 203:../Sources/LineDetectionDouble.c **** 			TFC_Ticker[3] = 0;
 2526              		.loc 1 203 0
 2527 0d10 CA4D     		ldr	r5, .L401+8
 202:../Sources/LineDetectionDouble.c **** 			previousTrack = bestTrack;
 2528              		.loc 1 202 0
 2529 0d12 3C60     		str	r4, [r7]
 205:../Sources/LineDetectionDouble.c **** 			carState->lineCenter = bestTrack.center;
 2530              		.loc 1 205 0
 2531 0d14 069E     		ldr	r6, [sp, #24]
 203:../Sources/LineDetectionDouble.c **** 			TFC_Ticker[3] = 0;
 2532              		.loc 1 203 0
 2533 0d16 0020     		mov	r0, #0
 205:../Sources/LineDetectionDouble.c **** 			carState->lineCenter = bestTrack.center;
 2534              		.loc 1 205 0
 2535 0d18 019B     		ldr	r3, [sp, #4]
 203:../Sources/LineDetectionDouble.c **** 			TFC_Ticker[3] = 0;
 2536              		.loc 1 203 0
 2537 0d1a E860     		str	r0, [r5, #12]
 205:../Sources/LineDetectionDouble.c **** 			carState->lineCenter = bestTrack.center;
 2538              		.loc 1 205 0
 2539 0d1c D978     		ldrb	r1, [r3, #3]
 207:../Sources/LineDetectionDouble.c **** 			if (carState->lineDetectionState != STOPLINE_DETECTED)
 2540              		.loc 1 207 0
 2541 0d1e B778     		ldrb	r7, [r6, #2]
 205:../Sources/LineDetectionDouble.c **** 			carState->lineCenter = bestTrack.center;
 2542              		.loc 1 205 0
 2543 0d20 B172     		strb	r1, [r6, #10]
 207:../Sources/LineDetectionDouble.c **** 			if (carState->lineDetectionState != STOPLINE_DETECTED)
 2544              		.loc 1 207 0
 2545 0d22 022F     		cmp	r7, #2
 2546 0d24 04D0     		beq	.L75
 210:../Sources/LineDetectionDouble.c **** 				carState->detectedType = DOUBLE_EDGE;
 2547              		.loc 1 210 0
 2548 0d26 0222     		mov	r2, #2
 211:../Sources/LineDetectionDouble.c **** 				carState->edge = BOTH_EDGE;
 2549              		.loc 1 211 0
 2550 0d28 0324     		mov	r4, #3
 209:../Sources/LineDetectionDouble.c **** 				carState->lineDetectionState = LINE_FOUND;
 2551              		.loc 1 209 0
 2552 0d2a B070     		strb	r0, [r6, #2]
 210:../Sources/LineDetectionDouble.c **** 				carState->detectedType = DOUBLE_EDGE;
 2553              		.loc 1 210 0
 2554 0d2c 3271     		strb	r2, [r6, #4]
 211:../Sources/LineDetectionDouble.c **** 				carState->edge = BOTH_EDGE;
 2555              		.loc 1 211 0
 2556 0d2e 7471     		strb	r4, [r6, #5]
 2557              	.L75:
 214:../Sources/LineDetectionDouble.c **** 			if(cross_section_enable == 1)
 2558              		.loc 1 214 0
 2559 0d30 C348     		ldr	r0, .L401+12
 2560 0d32 0578     		ldrb	r5, [r0]
 2561 0d34 012D     		cmp	r5, #1
 2562 0d36 00D0     		beq	.LCB2148
 2563 0d38 4CE6     		b	.L1	@long jump
 2564              	.LCB2148:
 216:../Sources/LineDetectionDouble.c **** 				if(carState->crossSection == YES)
 2565              		.loc 1 216 0
 2566 0d3a 0699     		ldr	r1, [sp, #24]
 2567 0d3c 8B79     		ldrb	r3, [r1, #6]
 2568 0d3e 012B     		cmp	r3, #1
 2569 0d40 00D0     		beq	.LCB2152
 2570 0d42 47E6     		b	.L1	@long jump
 2571              	.LCB2152:
 218:../Sources/LineDetectionDouble.c **** 					carState->crossSection = NO;
 2572              		.loc 1 218 0
 2573 0d44 0026     		mov	r6, #0
 2574 0d46 8E71     		strb	r6, [r1, #6]
 219:../Sources/LineDetectionDouble.c **** 					carState->crossSectionPosition = NO_CROSS;
 2575              		.loc 1 219 0
 2576 0d48 CE71     		strb	r6, [r1, #7]
 2577 0d4a 43E6     		b	.L1
 2578              	.L342:
 2579 0d4c 5E46     		mov	r6, fp
 2580 0d4e 0996     		str	r6, [sp, #36]
 2581 0d50 F1E4     		b	.L354
 2582              	.L323:
 2583              	.LBB139:
 141:../Sources/LineDetectionDouble.c **** 		if (detectedDoubleLines.line[k].lineType == LEFT && detectedDoubleLines.line[k].certainty > bestL
 2584              		.loc 1 141 0
 2585 0d52 4846     		mov	r0, r9
 2586 0d54 0068     		ldr	r0, [r0]
 2587 0d56 0499     		ldr	r1, [sp, #16]
 2588 0d58 FFF7FEFF 		bl	__aeabi_fcmpgt
 2589              	.LVL108:
 2590 0d5c 0028     		cmp	r0, #0
 2591 0d5e 00D1     		bne	.LCB2175
 2592 0d60 E0E4     		b	.L217	@long jump
 2593              	.LCB2175:
 143:../Sources/LineDetectionDouble.c **** 			bestLeft = detectedDoubleLines.line[k];
 2594              		.loc 1 143 0
 2595 0d62 029A     		ldr	r2, [sp, #8]
  28:../Sources/LineDetectionDouble.c **** void findLine(volatile uint16_t* lineScanImage, volatile uint16_t* lineScanImage1, carState_s* carS
 2596              		.loc 1 28 0
 2597 0d64 5346     		mov	r3, sl
 2598 0d66 0F33     		add	r3, r3, #15
 143:../Sources/LineDetectionDouble.c **** 			bestLeft = detectedDoubleLines.line[k];
 2599              		.loc 1 143 0
 2600 0d68 43CB     		ldmia	r3!, {r0, r1, r6}
 2601 0d6a 43C2     		stmia	r2!, {r0, r1, r6}
 2602 0d6c 1E68     		ldr	r6, [r3]
 2603 0d6e 1660     		str	r6, [r2]
 2604 0d70 1199     		ldr	r1, [sp, #68]
 2605 0d72 0491     		str	r1, [sp, #16]
 2606 0d74 D6E4     		b	.L217
 2607              	.LVL109:
 2608              	.L204:
 2609              	.LBE139:
 2610              	.LBB140:
 197:../Sources/LineDetectionDouble.c **** 				bestTrack = detectedTracks.track[k];
 2611              		.loc 1 197 0
 2612 0d76 019A     		ldr	r2, [sp, #4]
 2613 0d78 43CD     		ldmia	r5!, {r0, r1, r6}
 2614 0d7a 43C2     		stmia	r2!, {r0, r1, r6}
 2615 0d7c 2D68     		ldr	r5, [r5]
 2616 0d7e 1560     		str	r5, [r2]
 2617 0d80 019E     		ldr	r6, [sp, #4]
 2618 0d82 B368     		ldr	r3, [r6, #8]
 2619 0d84 9846     		mov	r8, r3
 2620 0d86 7CE7     		b	.L311
 2621              	.LVL110:
 2622              	.L70:
 2623              	.LBE140:
 228:../Sources/LineDetectionDouble.c **** 	if (bestLeft.certainty > MIN_CERTAINTY || bestRight.certainty > MIN_CERTAINTY)
 2624              		.loc 1 228 0
 2625 0d88 0498     		ldr	r0, [sp, #16]
 2626 0d8a AA49     		ldr	r1, .L401
 2627 0d8c FFF7FEFF 		bl	__aeabi_fcmpgt
 2628              	.LVL111:
 2629 0d90 0028     		cmp	r0, #0
 2630 0d92 00D0     		beq	.LCB2212
 2631 0d94 C9E0     		b	.L76	@long jump
 2632              	.LCB2212:
 228:../Sources/LineDetectionDouble.c **** 	if (bestLeft.certainty > MIN_CERTAINTY || bestRight.certainty > MIN_CERTAINTY)
 2633              		.loc 1 228 0 is_stmt 0
 2634 0d96 0798     		ldr	r0, [sp, #28]
 2635 0d98 A649     		ldr	r1, .L401
 2636 0d9a FFF7FEFF 		bl	__aeabi_fcmpgt
 2637              	.LVL112:
 2638 0d9e 0028     		cmp	r0, #0
 2639 0da0 00D0     		beq	.LCB2218
 2640 0da2 C2E0     		b	.L76	@long jump
 2641              	.LCB2218:
 294:../Sources/LineDetectionDouble.c **** 		bestLeft.derivativeCertainty = 0.0f;
 2642              		.loc 1 294 0 is_stmt 1
 2643 0da4 0023     		mov	r3, #0
 2644 0da6 0EAD     		add	r5, sp, #56
 295:../Sources/LineDetectionDouble.c **** 		bestRight.derivativeCertainty = 0.0f;
 2645              		.loc 1 295 0
 2646 0da8 12AE     		add	r6, sp, #72
 294:../Sources/LineDetectionDouble.c **** 		bestLeft.derivativeCertainty = 0.0f;
 2647              		.loc 1 294 0
 2648 0daa AB60     		str	r3, [r5, #8]
 295:../Sources/LineDetectionDouble.c **** 		bestRight.derivativeCertainty = 0.0f;
 2649              		.loc 1 295 0
 2650 0dac 0496     		str	r6, [sp, #16]
 2651 0dae 1493     		str	r3, [sp, #80]
 2652              	.LVL113:
 2653              	.LBB141:
 297:../Sources/LineDetectionDouble.c **** 		for (uint8_t k = 0; k < detectedDoubleLines.numberOfLines; k++)
 2654              		.loc 1 297 0
 2655 0db0 002F     		cmp	r7, #0
 2656 0db2 00D1     		bne	.LCB2228
 2657 0db4 5BE1     		b	.L93	@long jump
 2658              	.LCB2228:
  28:../Sources/LineDetectionDouble.c **** void findLine(volatile uint16_t* lineScanImage, volatile uint16_t* lineScanImage1, carState_s* carS
 2659              		.loc 1 28 0
 2660 0db6 013F     		sub	r7, r7, #1
 2661 0db8 FAB2     		uxtb	r2, r7
 2662 0dba 211C     		mov	r1, r4
 2663 0dbc 1701     		lsl	r7, r2, #4
 2664 0dbe 1131     		add	r1, r1, #17
 2665 0dc0 C919     		add	r1, r1, r7
 2666 0dc2 601C     		add	r0, r4, #1
 2667              	.LBE141:
 2668              	.LBB142:
 2669 0dc4 9A46     		mov	sl, r3
 2670 0dc6 1F1C     		add	r7, r3, #0
 2671 0dc8 0B1A     		sub	r3, r1, r0
 2672 0dca 103B     		sub	r3, r3, #16
 2673 0dcc 8046     		mov	r8, r0
 2674              	.LBE142:
 2675              	.LBB143:
 2676 0dce 8B46     		mov	fp, r1
 2677 0dd0 D806     		lsl	r0, r3, #27
 299:../Sources/LineDetectionDouble.c **** 			if (detectedDoubleLines.line[k].lineType == LEFT && detectedDoubleLines.line[k].derivativeCertai
 2678              		.loc 1 299 0
 2679 0dd2 6178     		ldrb	r1, [r4, #1]
 2680 0dd4 261C     		mov	r6, r4
 2681 0dd6 C20F     		lsr	r2, r0, #31
 2682 0dd8 0836     		add	r6, r6, #8
 2683 0dda 9146     		mov	r9, r2
 2684 0ddc 0029     		cmp	r1, #0
 2685 0dde 00D0     		beq	.LCB2254
 2686 0de0 37E2     		b	.L188	@long jump
 2687              	.LCB2254:
 2688 0de2 3068     		ldr	r0, [r6]
 2689 0de4 5146     		mov	r1, sl
 2690 0de6 FFF7FEFF 		bl	__aeabi_fcmpge
 2691              	.LVL114:
 2692 0dea 0028     		cmp	r0, #0
 2693 0dec 05D0     		beq	.L189
 301:../Sources/LineDetectionDouble.c **** 				bestLeft = detectedDoubleLines.line[k];
 2694              		.loc 1 301 0
 2695 0dee 2A1C     		mov	r2, r5
 2696 0df0 83CC     		ldmia	r4!, {r0, r1, r7}
 2697 0df2 83C2     		stmia	r2!, {r0, r1, r7}
 2698 0df4 2768     		ldr	r7, [r4]
 2699 0df6 1760     		str	r7, [r2]
 2700 0df8 AF68     		ldr	r7, [r5, #8]
 2701              	.L189:
 2702              	.LVL115:
 2703 0dfa 4446     		mov	r4, r8
 2704 0dfc 1036     		add	r6, r6, #16
 2705 0dfe 1034     		add	r4, r4, #16
 2706 0e00 0596     		str	r6, [sp, #20]
 297:../Sources/LineDetectionDouble.c **** 		for (uint8_t k = 0; k < detectedDoubleLines.numberOfLines; k++)
 2707              		.loc 1 297 0
 2708 0e02 5C45     		cmp	r4, fp
 2709 0e04 00D1     		bne	.LCB2275
 2710 0e06 24E1     		b	.L318	@long jump
 2711              	.LCB2275:
 2712 0e08 4946     		mov	r1, r9
 2713 0e0a 0029     		cmp	r1, #0
 2714 0e0c 00D1     		bne	.LCB2278
 2715 0e0e F3E1     		b	.L338	@long jump
 2716              	.LCB2278:
 299:../Sources/LineDetectionDouble.c **** 			if (detectedDoubleLines.line[k].lineType == LEFT && detectedDoubleLines.line[k].derivativeCertai
 2717              		.loc 1 299 0
 2718 0e10 2378     		ldrb	r3, [r4]
 2719 0e12 002B     		cmp	r3, #0
 2720 0e14 00D1     		bne	.LCB2281
 2721 0e16 F2E1     		b	.L319	@long jump
 2722              	.LCB2281:
 303:../Sources/LineDetectionDouble.c **** 			else if (detectedDoubleLines.line[k].lineType == RIGHT && detectedDoubleLines.line[k].derivative
 2723              		.loc 1 303 0
 2724 0e18 012B     		cmp	r3, #1
 2725 0e1a 00D1     		bne	.LCB2283
 2726 0e1c 3FE2     		b	.L387	@long jump
 2727              	.LCB2283:
 2728              	.L194:
 2729 0e1e 059E     		ldr	r6, [sp, #20]
 2730 0e20 1034     		add	r4, r4, #16
 2731 0e22 1036     		add	r6, r6, #16
 2732 0e24 0596     		str	r6, [sp, #20]
 2733 0e26 B946     		mov	r9, r7
 297:../Sources/LineDetectionDouble.c **** 		for (uint8_t k = 0; k < detectedDoubleLines.numberOfLines; k++)
 2734              		.loc 1 297 0
 2735 0e28 5C45     		cmp	r4, fp
 2736 0e2a 2CD1     		bne	.L98
 2737 0e2c 11E1     		b	.L318
 2738              	.L389:
 299:../Sources/LineDetectionDouble.c **** 			if (detectedDoubleLines.line[k].lineType == LEFT && detectedDoubleLines.line[k].derivativeCertai
 2739              		.loc 1 299 0
 2740 0e2e 3068     		ldr	r0, [r6]
 2741 0e30 4946     		mov	r1, r9
 2742 0e32 FFF7FEFF 		bl	__aeabi_fcmpge
 2743              	.LVL116:
 2744 0e36 0028     		cmp	r0, #0
 2745 0e38 07D0     		beq	.L95
  28:../Sources/LineDetectionDouble.c **** void findLine(volatile uint16_t* lineScanImage, volatile uint16_t* lineScanImage1, carState_s* carS
 2746              		.loc 1 28 0
 2747 0e3a 631E     		sub	r3, r4, #1
 301:../Sources/LineDetectionDouble.c **** 				bestLeft = detectedDoubleLines.line[k];
 2748              		.loc 1 301 0
 2749 0e3c 2A1C     		mov	r2, r5
 2750 0e3e 83CB     		ldmia	r3!, {r0, r1, r7}
 2751 0e40 83C2     		stmia	r2!, {r0, r1, r7}
 2752 0e42 1868     		ldr	r0, [r3]
 2753 0e44 1060     		str	r0, [r2]
 2754 0e46 A968     		ldr	r1, [r5, #8]
 2755 0e48 8946     		mov	r9, r1
 2756              	.L95:
 2757 0e4a 1027     		mov	r7, #16
 299:../Sources/LineDetectionDouble.c **** 			if (detectedDoubleLines.line[k].lineType == LEFT && detectedDoubleLines.line[k].derivativeCertai
 2758              		.loc 1 299 0
 2759 0e4c 227C     		ldrb	r2, [r4, #16]
 2760 0e4e 3B19     		add	r3, r7, r4
 2761 0e50 371C     		mov	r7, r6
 2762 0e52 9846     		mov	r8, r3
 2763 0e54 1037     		add	r7, r7, #16
 2764 0e56 002A     		cmp	r2, #0
 2765 0e58 00D0     		beq	.LCB2321
 2766 0e5a D8E0     		b	.L199	@long jump
 2767              	.LCB2321:
 2768 0e5c 3069     		ldr	r0, [r6, #16]
 2769 0e5e 4946     		mov	r1, r9
 2770 0e60 FFF7FEFF 		bl	__aeabi_fcmpge
 2771              	.LVL117:
 2772 0e64 0028     		cmp	r0, #0
 2773 0e66 07D0     		beq	.L200
  28:../Sources/LineDetectionDouble.c **** void findLine(volatile uint16_t* lineScanImage, volatile uint16_t* lineScanImage1, carState_s* carS
 2774              		.loc 1 28 0
 2775 0e68 0F34     		add	r4, r4, #15
 301:../Sources/LineDetectionDouble.c **** 				bestLeft = detectedDoubleLines.line[k];
 2776              		.loc 1 301 0
 2777 0e6a 2B1C     		mov	r3, r5
 2778 0e6c 43CC     		ldmia	r4!, {r0, r1, r6}
 2779 0e6e 43C3     		stmia	r3!, {r0, r1, r6}
 2780 0e70 2168     		ldr	r1, [r4]
 2781 0e72 1960     		str	r1, [r3]
 2782 0e74 AA68     		ldr	r2, [r5, #8]
 2783 0e76 9146     		mov	r9, r2
 2784              	.L200:
 2785 0e78 4446     		mov	r4, r8
 2786 0e7a 3E1C     		mov	r6, r7
 2787 0e7c 1034     		add	r4, r4, #16
 2788 0e7e 1036     		add	r6, r6, #16
 297:../Sources/LineDetectionDouble.c **** 		for (uint8_t k = 0; k < detectedDoubleLines.numberOfLines; k++)
 2789              		.loc 1 297 0
 2790 0e80 5C45     		cmp	r4, fp
 2791 0e82 00D1     		bne	.LCB2344
 2792 0e84 E4E0     		b	.L388	@long jump
 2793              	.LCB2344:
 2794              	.L98:
 299:../Sources/LineDetectionDouble.c **** 			if (detectedDoubleLines.line[k].lineType == LEFT && detectedDoubleLines.line[k].derivativeCertai
 2795              		.loc 1 299 0
 2796 0e86 2078     		ldrb	r0, [r4]
 2797 0e88 0028     		cmp	r0, #0
 2798 0e8a D0D0     		beq	.L389
 303:../Sources/LineDetectionDouble.c **** 			else if (detectedDoubleLines.line[k].lineType == RIGHT && detectedDoubleLines.line[k].derivative
 2799              		.loc 1 303 0
 2800 0e8c 0128     		cmp	r0, #1
 2801 0e8e DCD1     		bne	.L95
 303:../Sources/LineDetectionDouble.c **** 			else if (detectedDoubleLines.line[k].lineType == RIGHT && detectedDoubleLines.line[k].derivative
 2802              		.loc 1 303 0 is_stmt 0
 2803 0e90 3068     		ldr	r0, [r6]
 2804 0e92 5146     		mov	r1, sl
 2805 0e94 FFF7FEFF 		bl	__aeabi_fcmpge
 2806              	.LVL118:
 2807 0e98 0028     		cmp	r0, #0
 2808 0e9a D6D0     		beq	.L95
 305:../Sources/LineDetectionDouble.c **** 				bestRight = detectedDoubleLines.line[k];
 2809              		.loc 1 305 0 is_stmt 1
 2810 0e9c 049A     		ldr	r2, [sp, #16]
  28:../Sources/LineDetectionDouble.c **** void findLine(volatile uint16_t* lineScanImage, volatile uint16_t* lineScanImage1, carState_s* carS
 2811              		.loc 1 28 0
 2812 0e9e 631E     		sub	r3, r4, #1
 305:../Sources/LineDetectionDouble.c **** 				bestRight = detectedDoubleLines.line[k];
 2813              		.loc 1 305 0
 2814 0ea0 83CB     		ldmia	r3!, {r0, r1, r7}
 2815 0ea2 83C2     		stmia	r2!, {r0, r1, r7}
 2816 0ea4 1968     		ldr	r1, [r3]
 2817 0ea6 1160     		str	r1, [r2]
 2818 0ea8 149F     		ldr	r7, [sp, #80]
 2819 0eaa BA46     		mov	sl, r7
 2820 0eac CDE7     		b	.L95
 2821              	.L386:
 2822              	.LBE143:
 2823              	.LBB144:
 197:../Sources/LineDetectionDouble.c **** 				bestTrack = detectedTracks.track[k];
 2824              		.loc 1 197 0
 2825 0eae 0198     		ldr	r0, [sp, #4]
  28:../Sources/LineDetectionDouble.c **** void findLine(volatile uint16_t* lineScanImage, volatile uint16_t* lineScanImage1, carState_s* carS
 2826              		.loc 1 28 0
 2827 0eb0 5646     		mov	r6, sl
 2828 0eb2 0836     		add	r6, r6, #8
 197:../Sources/LineDetectionDouble.c **** 				bestTrack = detectedTracks.track[k];
 2829              		.loc 1 197 0
 2830 0eb4 0ECE     		ldmia	r6!, {r1, r2, r3}
 2831 0eb6 0EC0     		stmia	r0!, {r1, r2, r3}
 2832 0eb8 3168     		ldr	r1, [r6]
 2833 0eba 0160     		str	r1, [r0]
 2834 0ebc 019A     		ldr	r2, [sp, #4]
 2835 0ebe 9368     		ldr	r3, [r2, #8]
 2836 0ec0 9846     		mov	r8, r3
 2837 0ec2 ECE6     		b	.L321
 2838              	.LVL119:
 2839              	.L373:
 2840              	.LBE144:
 2841              	.LBB145:
 143:../Sources/LineDetectionDouble.c **** 			bestLeft = detectedDoubleLines.line[k];
 2842              		.loc 1 143 0
 2843 0ec4 029B     		ldr	r3, [sp, #8]
 2844 0ec6 221C     		mov	r2, r4
 2845 0ec8 43CA     		ldmia	r2!, {r0, r1, r6}
 2846 0eca 43C3     		stmia	r3!, {r0, r1, r6}
 2847 0ecc 4846     		mov	r0, r9
 2848 0ece 0668     		ldr	r6, [r0]
 2849 0ed0 1E60     		str	r6, [r3]
 2850 0ed2 1199     		ldr	r1, [sp, #68]
 2851 0ed4 0491     		str	r1, [sp, #16]
 2852 0ed6 FFF710FC 		bl	.L212	@ far jump
 2853              	.LVL120:
 2854              	.L44:
 2855              	.LBE145:
 109:../Sources/LineDetectionDouble.c **** 			else if(TFC_Ticker[3] >= MAX_LOST_LINE_DURATION)
 2856              		.loc 1 109 0
 2857 0eda E268     		ldr	r2, [r4, #12]
 2858 0edc 8242     		cmp	r2, r0
 2859 0ede 00D8     		bhi	.LCB2408
 2860 0ee0 78E5     		b	.L1	@long jump
 2861              	.LCB2408:
 111:../Sources/LineDetectionDouble.c **** 				carState->lineDetectionState = LINE_LOST;
 2862              		.loc 1 111 0
 2863 0ee2 069E     		ldr	r6, [sp, #24]
 2864 0ee4 0321     		mov	r1, #3
 2865 0ee6 B170     		strb	r1, [r6, #2]
 112:../Sources/LineDetectionDouble.c **** 				carState->detectedType = NONE;
 2866              		.loc 1 112 0
 2867 0ee8 3771     		strb	r7, [r6, #4]
 113:../Sources/LineDetectionDouble.c **** 				carState->edge = NO_EDGE;
 2868              		.loc 1 113 0
 2869 0eea 7771     		strb	r7, [r6, #5]
 2870 0eec 72E5     		b	.L1
 2871              	.L384:
  83:../Sources/LineDetectionDouble.c **** 					|| abs(carState->lineCenter) > STRAIGHT_CRITICAL_ERROR))
 2872              		.loc 1 83 0
 2873 0eee 0A20     		mov	r0, #10
 2874 0ef0 3356     		ldrsb	r3, [r6, r0]
 2875 0ef2 DF17     		asr	r7, r3, #31
 2876 0ef4 DE19     		add	r6, r3, r7
 2877 0ef6 7E40     		eor	r6, r7
 2878 0ef8 072E     		cmp	r6, #7
 2879 0efa 01DC     		bgt	.LCB2424
 2880 0efc FFF7F9FA 		bl	.L39	@far jump
 2881              	.LCB2424:
 2882 0f00 43E6     		b	.L40
 2883              	.L374:
 2884              	.LBB146:
 145:../Sources/LineDetectionDouble.c **** 		else if (detectedDoubleLines.line[k].lineType == RIGHT && detectedDoubleLines.line[k].certainty >
 2885              		.loc 1 145 0
 2886 0f02 4846     		mov	r0, r9
 2887 0f04 0068     		ldr	r0, [r0]
 2888 0f06 0799     		ldr	r1, [sp, #28]
 2889 0f08 FFF7FEFF 		bl	__aeabi_fcmpgt
 2890              	.LVL121:
 2891 0f0c 0028     		cmp	r0, #0
 2892 0f0e 01D1     		bne	.LCB2437
 2893 0f10 FFF708FC 		bl	.L217	@far jump
 2894              	.LCB2437:
 147:../Sources/LineDetectionDouble.c **** 			bestRight = detectedDoubleLines.line[k];
 2895              		.loc 1 147 0
 2896 0f14 039A     		ldr	r2, [sp, #12]
  28:../Sources/LineDetectionDouble.c **** void findLine(volatile uint16_t* lineScanImage, volatile uint16_t* lineScanImage1, carState_s* carS
 2897              		.loc 1 28 0
 2898 0f16 5346     		mov	r3, sl
 2899 0f18 0F33     		add	r3, r3, #15
 147:../Sources/LineDetectionDouble.c **** 			bestRight = detectedDoubleLines.line[k];
 2900              		.loc 1 147 0
 2901 0f1a 43CB     		ldmia	r3!, {r0, r1, r6}
 2902 0f1c 43C2     		stmia	r2!, {r0, r1, r6}
 2903 0f1e 1E68     		ldr	r6, [r3]
 2904 0f20 1660     		str	r6, [r2]
 2905 0f22 1599     		ldr	r1, [sp, #84]
 2906 0f24 0791     		str	r1, [sp, #28]
 2907 0f26 FFF7FDFB 		bl	.L217	@ far jump
 2908              	.L76:
 2909              	.LBE146:
 230:../Sources/LineDetectionDouble.c **** 		if (bestLeft.certainty >= bestRight.certainty)
 2910              		.loc 1 230 0
 2911 0f2a 0498     		ldr	r0, [sp, #16]
 2912 0f2c 0799     		ldr	r1, [sp, #28]
 2913 0f2e FFF7FEFF 		bl	__aeabi_fcmpge
 2914              	.LVL122:
 2915 0f32 0028     		cmp	r0, #0
 2916 0f34 42D0     		beq	.L314
 232:../Sources/LineDetectionDouble.c **** 			carState->lineCenter = (bestLeft.position - trackWidthAverage/2 - 64) - CAMERA_CENTER_OFFSET;
 2917              		.loc 1 232 0
 2918 0f36 4348     		ldr	r0, .L401+16
 2919 0f38 0EA9     		add	r1, sp, #56
 2920 0f3a 0A78     		ldrb	r2, [r1]
 2921 0f3c 0668     		ldr	r6, [r0]
 2922 0f3e 069D     		ldr	r5, [sp, #24]
 2923 0f40 3D3A     		sub	r2, r2, #61
 2924 0f42 7408     		lsr	r4, r6, #1
 2925 0f44 171B     		sub	r7, r2, r4
 233:../Sources/LineDetectionDouble.c **** 			carState->edge = LEFT_EDGE;
 2926              		.loc 1 233 0
 2927 0f46 0123     		mov	r3, #1
 232:../Sources/LineDetectionDouble.c **** 			carState->lineCenter = (bestLeft.position - trackWidthAverage/2 - 64) - CAMERA_CENTER_OFFSET;
 2928              		.loc 1 232 0
 2929 0f48 AF72     		strb	r7, [r5, #10]
 233:../Sources/LineDetectionDouble.c **** 			carState->edge = LEFT_EDGE;
 2930              		.loc 1 233 0
 2931 0f4a 6B71     		strb	r3, [r5, #5]
 2932              	.L81:
 241:../Sources/LineDetectionDouble.c **** 		if(cross_section_enable == 1)
 2933              		.loc 1 241 0
 2934 0f4c 3C49     		ldr	r1, .L401+12
 2935 0f4e 0A78     		ldrb	r2, [r1]
 2936 0f50 012A     		cmp	r2, #1
 2937 0f52 00D1     		bne	.LCB2475
 2938 0f54 B6E0     		b	.L390	@long jump
 2939              	.LCB2475:
 2940              	.L83:
 283:../Sources/LineDetectionDouble.c **** 		if (carState->lineDetectionState != STOPLINE_DETECTED)
 2941              		.loc 1 283 0
 2942 0f56 069D     		ldr	r5, [sp, #24]
 2943 0f58 A878     		ldrb	r0, [r5, #2]
 2944 0f5a 0228     		cmp	r0, #2
 2945 0f5c 00D1     		bne	.LCB2480
 2946 0f5e 08E6     		b	.L111	@long jump
 2947              	.LCB2480:
 285:../Sources/LineDetectionDouble.c **** 			carState->lineDetectionState = LINE_FOUND;
 2948              		.loc 1 285 0
 2949 0f60 0023     		mov	r3, #0
 286:../Sources/LineDetectionDouble.c **** 			carState->detectedType = SINGLE_EDGE;
 2950              		.loc 1 286 0
 2951 0f62 0121     		mov	r1, #1
 285:../Sources/LineDetectionDouble.c **** 			carState->lineDetectionState = LINE_FOUND;
 2952              		.loc 1 285 0
 2953 0f64 AB70     		strb	r3, [r5, #2]
 286:../Sources/LineDetectionDouble.c **** 			carState->detectedType = SINGLE_EDGE;
 2954              		.loc 1 286 0
 2955 0f66 2971     		strb	r1, [r5, #4]
 2956 0f68 03E6     		b	.L111
 2957              	.LVL123:
 2958              	.L360:
 2959 0f6a 8021     		mov	r1, #128
 2960 0f6c 4800     		lsl	r0, r1, #1
 2961 0f6e 6346     		mov	r3, ip
 2962 0f70 3A54     		strb	r2, [r7, r0]
 2963              	.LVL124:
 2964              	.LBB147:
 2965              	.LBB81:
 434:../Sources/LineDetectionDouble.c **** 	for (uint8_t k = 0; k < detectedTransitions->numberOfTransitions && detectedLines->numberOfLines <
 2966              		.loc 1 434 0
 2967 0f72 002A     		cmp	r2, #0
 2968 0f74 01D0     		beq	.LCB2498
 2969 0f76 FFF796F9 		bl	.L116	@far jump
 2970              	.LCB2498:
 2971 0f7a FFF7D4F9 		bl	.L12	@ far jump
 2972              	.LVL125:
 2973              	.L381:
 2974              	.LBE81:
 2975              	.LBE147:
 2976              	.LBB148:
 2977              	.LBB119:
 508:../Sources/LineDetectionDouble.c **** 			detectedDoubleLines->line[detectedDoubleLines->numberOfLines].position = detectedTransitions->tr
 2978              		.loc 1 508 0
 2979 0f7e 3678     		ldrb	r6, [r6]
 2980 0f80 3B01     		lsl	r3, r7, #4
 2981 0f82 E654     		strb	r6, [r4, r3]
 509:../Sources/LineDetectionDouble.c **** 			detectedDoubleLines->line[detectedDoubleLines->numberOfLines].lineType = LEFT;
 2982              		.loc 1 509 0
 2983 0f84 5146     		mov	r1, sl
 2984 0f86 E318     		add	r3, r4, r3
  28:../Sources/LineDetectionDouble.c **** void findLine(volatile uint16_t* lineScanImage, volatile uint16_t* lineScanImage1, carState_s* carS
 2985              		.loc 1 28 0
 2986 0f88 561C     		add	r6, r2, #1
 509:../Sources/LineDetectionDouble.c **** 			detectedDoubleLines->line[detectedDoubleLines->numberOfLines].lineType = LEFT;
 2987              		.loc 1 509 0
 2988 0f8a 5970     		strb	r1, [r3, #1]
 510:../Sources/LineDetectionDouble.c **** 			detectedDoubleLines->line[detectedDoubleLines->numberOfLines].derivative = detectedTransitions->
 2989              		.loc 1 510 0
 2990 0f8c 3188     		ldrh	r1, [r6]
 2991 0f8e 5980     		strh	r1, [r3, #2]
 2992 0f90 4B46     		mov	r3, r9
 2993 0f92 1EB2     		sxth	r6, r3
 2994 0f94 B146     		mov	r9, r6
 2995 0f96 0EB2     		sxth	r6, r1
 2996 0f98 B145     		cmp	r9, r6
 2997 0f9a 00DA     		bge	.L236
 2998 0f9c 0B1C     		add	r3, r1, #0
 2999              	.L236:
 517:../Sources/LineDetectionDouble.c **** 			detectedDoubleLines->numberOfLines++;		
 3000              		.loc 1 517 0
 3001 0f9e 0137     		add	r7, r7, #1
 3002 0fa0 99B2     		uxth	r1, r3
 3003 0fa2 FFB2     		uxtb	r7, r7
 3004 0fa4 8946     		mov	r9, r1
 3005 0fa6 3B1C     		mov	r3, r7
 3006 0fa8 F4E4     		b	.L279
 3007              	.L383:
 3008              	.LBE119:
 3009              	.LBE148:
 174:../Sources/LineDetectionDouble.c **** 			if(carState->crossSection == YES)
 3010              		.loc 1 174 0
 3011 0faa 0699     		ldr	r1, [sp, #24]
 3012 0fac 8E79     		ldrb	r6, [r1, #6]
 3013 0fae 012E     		cmp	r6, #1
 3014 0fb0 00D0     		beq	.LCB2542
 3015 0fb2 C7E5     		b	.L66	@long jump
 3016              	.LCB2542:
 176:../Sources/LineDetectionDouble.c **** 				carState->crossSection = NO;
 3017              		.loc 1 176 0
 3018 0fb4 0023     		mov	r3, #0
 3019 0fb6 8B71     		strb	r3, [r1, #6]
 177:../Sources/LineDetectionDouble.c **** 				carState->crossSectionPosition = NO_CROSS;
 3020              		.loc 1 177 0
 3021 0fb8 CB71     		strb	r3, [r1, #7]
 3022 0fba C3E5     		b	.L66
 3023              	.L314:
 235:../Sources/LineDetectionDouble.c **** 		else if (bestRight.certainty > bestLeft.certainty)
 3024              		.loc 1 235 0
 3025 0fbc 0498     		ldr	r0, [sp, #16]
 3026 0fbe 0799     		ldr	r1, [sp, #28]
 3027 0fc0 FFF7FEFF 		bl	__aeabi_fcmplt
 3028              	.LVL126:
 3029 0fc4 0028     		cmp	r0, #0
 3030 0fc6 C1D0     		beq	.L81
 237:../Sources/LineDetectionDouble.c **** 			carState->lineCenter = (bestRight.position + trackWidthAverage/2 - 64) - CAMERA_CENTER_OFFSET;
 3031              		.loc 1 237 0
 3032 0fc8 1E48     		ldr	r0, .L401+16
 3033 0fca 12A9     		add	r1, sp, #72
 3034 0fcc 0A78     		ldrb	r2, [r1]
 3035 0fce 0668     		ldr	r6, [r0]
 3036 0fd0 069D     		ldr	r5, [sp, #24]
 3037 0fd2 3D3A     		sub	r2, r2, #61
 3038 0fd4 7408     		lsr	r4, r6, #1
 3039 0fd6 1719     		add	r7, r2, r4
 238:../Sources/LineDetectionDouble.c **** 			carState->edge = RIGHT_EDGE;
 3040              		.loc 1 238 0
 3041 0fd8 0223     		mov	r3, #2
 237:../Sources/LineDetectionDouble.c **** 			carState->lineCenter = (bestRight.position + trackWidthAverage/2 - 64) - CAMERA_CENTER_OFFSET;
 3042              		.loc 1 237 0
 3043 0fda AF72     		strb	r7, [r5, #10]
 238:../Sources/LineDetectionDouble.c **** 			carState->edge = RIGHT_EDGE;
 3044              		.loc 1 238 0
 3045 0fdc 6B71     		strb	r3, [r5, #5]
 3046 0fde B5E7     		b	.L81
 3047              	.LVL127:
 3048              	.L122:
 3049              	.LBB149:
 139:../Sources/LineDetectionDouble.c **** 	for (uint8_t k = 0; k < detectedDoubleLines.numberOfLines; k++)
 3050              		.loc 1 139 0
 3051 0fe0 0022     		mov	r2, #0
 3052 0fe2 0792     		str	r2, [sp, #28]
 3053 0fe4 0492     		str	r2, [sp, #16]
 3054 0fe6 81E5     		b	.L54
 3055              	.LVL128:
 3056              	.L121:
 3057              	.LBE149:
 3058              	.LBB150:
 129:../Sources/LineDetectionDouble.c **** 	for (uint8_t k = 0; k < detectedTracks.numberOfTracks; k++)
 3059              		.loc 1 129 0
 3060 0fe8 0026     		mov	r6, #0
 3061 0fea 0AAB     		add	r3, sp, #40
 3062 0fec 0896     		str	r6, [sp, #32]
 3063 0fee 0193     		str	r3, [sp, #4]
 3064 0ff0 FFF75AFB 		bl	.L50	@ far jump
 3065              	.LVL129:
 3066              	.L382:
 3067              	.LBE150:
 104:../Sources/LineDetectionDouble.c **** 						lineCenterTemp = lineCenterTemp*CROSS_LINE_ERROR_REDUCTION;
 3068              		.loc 1 104 0
 3069 0ff4 144D     		ldr	r5, .L401+20
 103:../Sources/LineDetectionDouble.c **** 						carState->crossSectionPosition = MIDDLE;
 3070              		.loc 1 103 0
 3071 0ff6 0224     		mov	r4, #2
 104:../Sources/LineDetectionDouble.c **** 						lineCenterTemp = lineCenterTemp*CROSS_LINE_ERROR_REDUCTION;
 3072              		.loc 1 104 0
 3073 0ff8 2868     		ldr	r0, [r5]
 3074 0ffa 1449     		ldr	r1, .L401+24
 103:../Sources/LineDetectionDouble.c **** 						carState->crossSectionPosition = MIDDLE;
 3075              		.loc 1 103 0
 3076 0ffc F471     		strb	r4, [r6, #7]
 104:../Sources/LineDetectionDouble.c **** 						lineCenterTemp = lineCenterTemp*CROSS_LINE_ERROR_REDUCTION;
 3077              		.loc 1 104 0
 3078 0ffe FFF7FEFF 		bl	__aeabi_fmul
 3079              	.LVL130:
 3080 1002 2860     		str	r0, [r5]
 105:../Sources/LineDetectionDouble.c **** 						carState->lineCenter = (int8_t)(lineCenterTemp);
 3081              		.loc 1 105 0
 3082 1004 FFF7FEFF 		bl	__aeabi_f2iz
 3083              	.LVL131:
 3084 1008 069A     		ldr	r2, [sp, #24]
 3085 100a 9072     		strb	r0, [r2, #10]
 3086 100c E2E4     		b	.L1
 3087              	.L199:
 3088              	.LBB151:
 303:../Sources/LineDetectionDouble.c **** 			else if (detectedDoubleLines.line[k].lineType == RIGHT && detectedDoubleLines.line[k].derivative
 3089              		.loc 1 303 0
 3090 100e 012A     		cmp	r2, #1
 3091 1010 00D0     		beq	.LCB2613
 3092 1012 31E7     		b	.L200	@long jump
 3093              	.LCB2613:
 3094 1014 3868     		ldr	r0, [r7]
 3095 1016 5146     		mov	r1, sl
 3096 1018 FFF7FEFF 		bl	__aeabi_fcmpge
 3097              	.LVL132:
 3098 101c 0028     		cmp	r0, #0
 3099 101e 00D1     		bne	.LCB2619
 3100 1020 2AE7     		b	.L200	@long jump
 3101              	.LCB2619:
 305:../Sources/LineDetectionDouble.c **** 				bestRight = detectedDoubleLines.line[k];
 3102              		.loc 1 305 0
 3103 1022 049E     		ldr	r6, [sp, #16]
  28:../Sources/LineDetectionDouble.c **** void findLine(volatile uint16_t* lineScanImage, volatile uint16_t* lineScanImage1, carState_s* carS
 3104              		.loc 1 28 0
 3105 1024 0F34     		add	r4, r4, #15
 305:../Sources/LineDetectionDouble.c **** 				bestRight = detectedDoubleLines.line[k];
 3106              		.loc 1 305 0
 3107 1026 07CC     		ldmia	r4!, {r0, r1, r2}
 3108 1028 07C6     		stmia	r6!, {r0, r1, r2}
 3109 102a 2468     		ldr	r4, [r4]
 3110 102c 3460     		str	r4, [r6]
 3111 102e 1498     		ldr	r0, [sp, #80]
 3112 1030 8246     		mov	sl, r0
 3113 1032 21E7     		b	.L200
 3114              	.L402:
 3115              		.align	2
 3116              	.L401:
 3117 1034 CDCC4C3E 		.word	1045220557
 3118 1038 00000000 		.word	.LANCHOR11
 3119 103c 00000000 		.word	TFC_Ticker
 3120 1040 00000000 		.word	cross_section_enable
 3121 1044 00000000 		.word	.LANCHOR10
 3122 1048 00000000 		.word	.LANCHOR9
 3123 104c 3D0A773F 		.word	1064766013
 3124              	.L388:
 3125 1050 4F46     		mov	r7, r9
 3126              	.L318:
 3127              	.LBE151:
 309:../Sources/LineDetectionDouble.c **** 		if (bestLeft.derivativeCertainty > MIN_CERTAINTY || bestRight.derivativeCertainty > MIN_CERTAINTY
 3128              		.loc 1 309 0
 3129 1052 381C     		add	r0, r7, #0
 3130 1054 B149     		ldr	r1, .L403
 3131 1056 FFF7FEFF 		bl	__aeabi_fcmpgt
 3132              	.LVL133:
 3133 105a 0028     		cmp	r0, #0
 3134 105c 00D0     		beq	.LCB2653
 3135 105e 94E0     		b	.L99	@long jump
 3136              	.LCB2653:
 309:../Sources/LineDetectionDouble.c **** 		if (bestLeft.derivativeCertainty > MIN_CERTAINTY || bestRight.derivativeCertainty > MIN_CERTAINTY
 3137              		.loc 1 309 0 is_stmt 0
 3138 1060 5046     		mov	r0, sl
 3139 1062 AE49     		ldr	r1, .L403
 3140 1064 FFF7FEFF 		bl	__aeabi_fcmpgt
 3141              	.LVL134:
 3142 1068 0028     		cmp	r0, #0
 3143 106a 00D0     		beq	.LCB2659
 3144 106c 8DE0     		b	.L99	@long jump
 3145              	.LCB2659:
 3146              	.L93:
 354:../Sources/LineDetectionDouble.c **** 	if (TFC_Ticker[3] < MAX_LOST_LINE_DURATION)
 3147              		.loc 1 354 0 is_stmt 1
 3148 106e AC48     		ldr	r0, .L403+4
 3149 1070 AC4A     		ldr	r2, .L403+8
 3150 1072 C568     		ldr	r5, [r0, #12]
 3151 1074 9542     		cmp	r5, r2
 3152 1076 00D9     		bls	.LCB2666
 3153 1078 24E1     		b	.L112	@long jump
 3154              	.LCB2666:
 356:../Sources/LineDetectionDouble.c **** 		if (carState->lineDetectionState != STOPLINE_DETECTED)
 3155              		.loc 1 356 0
 3156 107a 069D     		ldr	r5, [sp, #24]
 3157 107c AA78     		ldrb	r2, [r5, #2]
 3158 107e 022A     		cmp	r2, #2
 3159 1080 04D0     		beq	.L113
 359:../Sources/LineDetectionDouble.c **** 			carState->detectedType = NONE;
 3160              		.loc 1 359 0
 3161 1082 0023     		mov	r3, #0
 358:../Sources/LineDetectionDouble.c **** 			carState->lineDetectionState = LINE_TEMPORARILY_LOST;
 3162              		.loc 1 358 0
 3163 1084 0124     		mov	r4, #1
 3164 1086 AC70     		strb	r4, [r5, #2]
 359:../Sources/LineDetectionDouble.c **** 			carState->detectedType = NONE;
 3165              		.loc 1 359 0
 3166 1088 2B71     		strb	r3, [r5, #4]
 360:../Sources/LineDetectionDouble.c **** 			carState->edge = NO_EDGE;			
 3167              		.loc 1 360 0
 3168 108a 6B71     		strb	r3, [r5, #5]
 3169              	.L113:
 363:../Sources/LineDetectionDouble.c **** 		if(cross_section_enable == 1)
 3170              		.loc 1 363 0
 3171 108c A649     		ldr	r1, .L403+12
 3172 108e 0E78     		ldrb	r6, [r1]
 3173 1090 012E     		cmp	r6, #1
 3174 1092 00D0     		beq	.LCB2681
 3175 1094 9EE4     		b	.L1	@long jump
 3176              	.LCB2681:
 365:../Sources/LineDetectionDouble.c **** 			if(carState->crossSection == YES && TFC_Ticker[3] >= CROSS_MID_TIME_THRESHOLD)
 3177              		.loc 1 365 0
 3178 1096 069F     		ldr	r7, [sp, #24]
 3179 1098 BD79     		ldrb	r5, [r7, #6]
 3180 109a 012D     		cmp	r5, #1
 3181 109c 00D0     		beq	.LCB2685
 3182 109e 99E4     		b	.L1	@long jump
 3183              	.LCB2685:
 365:../Sources/LineDetectionDouble.c **** 			if(carState->crossSection == YES && TFC_Ticker[3] >= CROSS_MID_TIME_THRESHOLD)
 3184              		.loc 1 365 0 is_stmt 0
 3185 10a0 C068     		ldr	r0, [r0, #12]
 3186 10a2 3128     		cmp	r0, #49
 3187 10a4 00D8     		bhi	.LCB2688
 3188 10a6 95E4     		b	.L1	@long jump
 3189              	.LCB2688:
 367:../Sources/LineDetectionDouble.c **** 				carState->crossSectionPosition = MIDDLE;
 3190              		.loc 1 367 0 is_stmt 1
 3191 10a8 0222     		mov	r2, #2
 368:../Sources/LineDetectionDouble.c **** 				carState->lineCenter = (int8_t)((float)lineCenterPrevious*CROSS_LINE_ERROR_REDUCTION);
 3192              		.loc 1 368 0
 3193 10aa A04C     		ldr	r4, .L403+16
 367:../Sources/LineDetectionDouble.c **** 				carState->crossSectionPosition = MIDDLE;
 3194              		.loc 1 367 0
 3195 10ac FA71     		strb	r2, [r7, #7]
 368:../Sources/LineDetectionDouble.c **** 				carState->lineCenter = (int8_t)((float)lineCenterPrevious*CROSS_LINE_ERROR_REDUCTION);
 3196              		.loc 1 368 0
 3197 10ae 0023     		mov	r3, #0
 3198 10b0 E056     		ldrsb	r0, [r4, r3]
 3199 10b2 FFF7FEFF 		bl	__aeabi_i2f
 3200              	.LVL135:
 3201 10b6 9E49     		ldr	r1, .L403+20
 3202 10b8 FFF7FEFF 		bl	__aeabi_fmul
 3203              	.LVL136:
 3204 10bc FFF7FEFF 		bl	__aeabi_f2iz
 3205              	.LVL137:
 3206 10c0 B872     		strb	r0, [r7, #10]
 3207 10c2 87E4     		b	.L1
 3208              	.L390:
 243:../Sources/LineDetectionDouble.c **** 			if(carState->crossSection == NO)
 3209              		.loc 1 243 0
 3210 10c4 069E     		ldr	r6, [sp, #24]
 3211 10c6 B079     		ldrb	r0, [r6, #6]
 3212 10c8 0028     		cmp	r0, #0
 3213 10ca 00D0     		beq	.LCB2709
 3214 10cc BAE0     		b	.L84	@long jump
 3215              	.LCB2709:
 3216              	.LBB152:
 245:../Sources/LineDetectionDouble.c **** 				float carSpeed = (speedL + speedR)/2;
 3217              		.loc 1 245 0
 3218 10ce 994A     		ldr	r2, .L403+24
 3219 10d0 9949     		ldr	r1, .L403+28
 3220 10d2 FC24     		mov	r4, #252
 3221 10d4 0868     		ldr	r0, [r1]
 3222 10d6 1168     		ldr	r1, [r2]
 3223 10d8 FFF7FEFF 		bl	__aeabi_fadd
 3224              	.LVL138:
 3225 10dc A105     		lsl	r1, r4, #22
 3226 10de FFF7FEFF 		bl	__aeabi_fmul
 3227              	.LVL139:
 246:../Sources/LineDetectionDouble.c **** 				float crossDerivative = ((float)lineCenterPrevious - (float)carState->lineCenter)/(((float)newE
 3228              		.loc 1 246 0
 3229 10e2 924F     		ldr	r7, .L403+16
 245:../Sources/LineDetectionDouble.c **** 				float carSpeed = (speedL + speedR)/2;
 3230              		.loc 1 245 0
 3231 10e4 041C     		add	r4, r0, #0
 3232              	.LVL140:
 246:../Sources/LineDetectionDouble.c **** 				float crossDerivative = ((float)lineCenterPrevious - (float)carState->lineCenter)/(((float)newE
 3233              		.loc 1 246 0
 3234 10e6 0020     		mov	r0, #0
 3235              	.LVL141:
 3236 10e8 3856     		ldrsb	r0, [r7, r0]
 3237 10ea FFF7FEFF 		bl	__aeabi_i2f
 3238              	.LVL142:
 3239 10ee 0A23     		mov	r3, #10
 3240 10f0 051C     		add	r5, r0, #0
 3241 10f2 F056     		ldrsb	r0, [r6, r3]
 3242 10f4 FFF7FEFF 		bl	__aeabi_i2f
 3243              	.LVL143:
 3244 10f8 011C     		add	r1, r0, #0
 3245 10fa 281C     		add	r0, r5, #0
 3246 10fc FFF7FEFF 		bl	__aeabi_fsub
 3247              	.LVL144:
 3248 1100 8E49     		ldr	r1, .L403+32
 3249 1102 061C     		add	r6, r0, #0
 3250 1104 0868     		ldr	r0, [r1]
 3251 1106 FFF7FEFF 		bl	__aeabi_i2f
 3252              	.LVL145:
 3253 110a 8D49     		ldr	r1, .L403+36
 3254 110c FFF7FEFF 		bl	__aeabi_fdiv
 3255              	.LVL146:
 3256 1110 F822     		mov	r2, #248
 3257 1112 9105     		lsl	r1, r2, #22
 3258 1114 071C     		add	r7, r0, #0
 3259 1116 201C     		add	r0, r4, #0
 3260 1118 FFF7FEFF 		bl	__aeabi_fmul
 3261              	.LVL147:
 3262 111c 011C     		add	r1, r0, #0
 3263 111e 381C     		add	r0, r7, #0
 3264 1120 FFF7FEFF 		bl	__aeabi_fmul
 3265              	.LVL148:
 3266 1124 011C     		add	r1, r0, #0
 3267 1126 301C     		add	r0, r6, #0
 3268 1128 FFF7FEFF 		bl	__aeabi_fdiv
 3269              	.LVL149:
 248:../Sources/LineDetectionDouble.c **** 				if(((crossDerivative > CROSS_DERIVATIVE_THRESHOLD && carState->edge == RIGHT_EDGE) || (crossDer
 3270              		.loc 1 248 0
 3271 112c 8549     		ldr	r1, .L403+40
 246:../Sources/LineDetectionDouble.c **** 				float crossDerivative = ((float)lineCenterPrevious - (float)carState->lineCenter)/(((float)newE
 3272              		.loc 1 246 0
 3273 112e 061C     		add	r6, r0, #0
 3274              	.LVL150:
 248:../Sources/LineDetectionDouble.c **** 				if(((crossDerivative > CROSS_DERIVATIVE_THRESHOLD && carState->edge == RIGHT_EDGE) || (crossDer
 3275              		.loc 1 248 0
 3276 1130 FFF7FEFF 		bl	__aeabi_fcmpgt
 3277              	.LVL151:
 3278 1134 0028     		cmp	r0, #0
 3279 1136 03D0     		beq	.L85
 248:../Sources/LineDetectionDouble.c **** 				if(((crossDerivative > CROSS_DERIVATIVE_THRESHOLD && carState->edge == RIGHT_EDGE) || (crossDer
 3280              		.loc 1 248 0 is_stmt 0
 3281 1138 0698     		ldr	r0, [sp, #24]
 3282 113a 4379     		ldrb	r3, [r0, #5]
 3283 113c 022B     		cmp	r3, #2
 3284 113e 0BD0     		beq	.L87
 3285              	.L85:
 248:../Sources/LineDetectionDouble.c **** 				if(((crossDerivative > CROSS_DERIVATIVE_THRESHOLD && carState->edge == RIGHT_EDGE) || (crossDer
 3286              		.loc 1 248 0
 3287 1140 301C     		add	r0, r6, #0
 3288 1142 8149     		ldr	r1, .L403+44
 3289 1144 FFF7FEFF 		bl	__aeabi_fcmplt
 3290              	.LVL152:
 3291 1148 0028     		cmp	r0, #0
 3292 114a 00D1     		bne	.LCB2778
 3293 114c 03E7     		b	.L83	@long jump
 3294              	.LCB2778:
 248:../Sources/LineDetectionDouble.c **** 				if(((crossDerivative > CROSS_DERIVATIVE_THRESHOLD && carState->edge == RIGHT_EDGE) || (crossDer
 3295              		.loc 1 248 0
 3296 114e 0699     		ldr	r1, [sp, #24]
 3297 1150 4F79     		ldrb	r7, [r1, #5]
 3298 1152 012F     		cmp	r7, #1
 3299 1154 00D0     		beq	.LCB2782
 3300 1156 FEE6     		b	.L83	@long jump
 3301              	.LCB2782:
 3302              	.L87:
 249:../Sources/LineDetectionDouble.c **** 					&& carSpeed > CROSS_MIN_SPEED
 3303              		.loc 1 249 0 is_stmt 1
 3304 1158 201C     		add	r0, r4, #0
 3305 115a 7C49     		ldr	r1, .L403+48
 3306 115c FFF7FEFF 		bl	__aeabi_fcmpgt
 3307              	.LVL153:
 3308 1160 0028     		cmp	r0, #0
 3309 1162 00D1     		bne	.LCB2790
 3310 1164 F7E6     		b	.L83	@long jump
 3311              	.LCB2790:
 250:../Sources/LineDetectionDouble.c **** 					&& carState->lineDistance >= CROSS_MINIMUM_DISTANCE
 3312              		.loc 1 250 0
 3313 1166 069E     		ldr	r6, [sp, #24]
 3314              	.LVL154:
 3315 1168 347B     		ldrb	r4, [r6, #12]
 3316              	.LVL155:
 3317 116a 442C     		cmp	r4, #68
 3318 116c 00D8     		bhi	.LCB2796
 3319 116e F2E6     		b	.L83	@long jump
 3320              	.LCB2796:
 253:../Sources/LineDetectionDouble.c **** 					lineCenterTemp = lineCenterTemp*CROSS_LINE_ERROR_REDUCTION;
 3321              		.loc 1 253 0
 3322 1170 774F     		ldr	r7, .L403+52
 3323 1172 6F49     		ldr	r1, .L403+20
 3324 1174 3868     		ldr	r0, [r7]
 3325 1176 FFF7FEFF 		bl	__aeabi_fmul
 3326              	.LVL156:
 254:../Sources/LineDetectionDouble.c **** 					carState->lineCenter = (int8_t)(lineCenterTemp);
 3327              		.loc 1 254 0
 3328 117a FFF7FEFF 		bl	__aeabi_f2iz
 3329              	.LVL157:
 255:../Sources/LineDetectionDouble.c **** 					carState->crossSection = YES;
 3330              		.loc 1 255 0
 3331 117e 0122     		mov	r2, #1
 254:../Sources/LineDetectionDouble.c **** 					carState->lineCenter = (int8_t)(lineCenterTemp);
 3332              		.loc 1 254 0
 3333 1180 B072     		strb	r0, [r6, #10]
 255:../Sources/LineDetectionDouble.c **** 					carState->crossSection = YES;
 3334              		.loc 1 255 0
 3335 1182 B271     		strb	r2, [r6, #6]
 256:../Sources/LineDetectionDouble.c **** 					carState->crossSectionPosition = BEGINNING;
 3336              		.loc 1 256 0
 3337 1184 F271     		strb	r2, [r6, #7]
 257:../Sources/LineDetectionDouble.c **** 					lineCenterTemp = (float)lineCenterPrevious;
 3338              		.loc 1 257 0
 3339 1186 3D60     		str	r5, [r7]
 3340 1188 E5E6     		b	.L83
 3341              	.L99:
 3342              	.LBE152:
 311:../Sources/LineDetectionDouble.c **** 			if (bestLeft.derivativeCertainty >= bestRight.derivativeCertainty)
 3343              		.loc 1 311 0
 3344 118a 381C     		add	r0, r7, #0
 3345 118c 5146     		mov	r1, sl
 3346 118e FFF7FEFF 		bl	__aeabi_fcmpge
 3347              	.LVL158:
 3348 1192 0028     		cmp	r0, #0
 3349 1194 44D0     		beq	.L317
 313:../Sources/LineDetectionDouble.c **** 				carState->lineCenter = (bestLeft.position + trackWidthAverage/2 - 64) - CAMERA_CENTER_OFFSET;
 3350              		.loc 1 313 0
 3351 1196 6F4A     		ldr	r2, .L403+56
 3352 1198 2878     		ldrb	r0, [r5]
 3353 119a 1468     		ldr	r4, [r2]
 3354 119c 3D38     		sub	r0, r0, #61
 3355 119e 069E     		ldr	r6, [sp, #24]
 3356 11a0 6308     		lsr	r3, r4, #1
 3357 11a2 C118     		add	r1, r0, r3
 314:../Sources/LineDetectionDouble.c **** 				carState->edge = LEFT_EDGE;
 3358              		.loc 1 314 0
 3359 11a4 0120     		mov	r0, #1
 313:../Sources/LineDetectionDouble.c **** 				carState->lineCenter = (bestLeft.position + trackWidthAverage/2 - 64) - CAMERA_CENTER_OFFSET;
 3360              		.loc 1 313 0
 3361 11a6 B172     		strb	r1, [r6, #10]
 314:../Sources/LineDetectionDouble.c **** 				carState->edge = LEFT_EDGE;
 3362              		.loc 1 314 0
 3363 11a8 7071     		strb	r0, [r6, #5]
 3364              	.L103:
 322:../Sources/LineDetectionDouble.c **** 			if(cross_section_enable == 1)
 3365              		.loc 1 322 0
 3366 11aa 5F4A     		ldr	r2, .L403+12
 3367 11ac 1478     		ldrb	r4, [r2]
 3368 11ae 012C     		cmp	r4, #1
 3369 11b0 61D0     		beq	.L391
 3370              	.L105:
 336:../Sources/LineDetectionDouble.c **** 			if (bestLeft.derivativeCertainty > MIN_CERTAINTY)
 3371              		.loc 1 336 0
 3372 11b2 381C     		add	r0, r7, #0
 3373 11b4 5949     		ldr	r1, .L403
 3374 11b6 FFF7FEFF 		bl	__aeabi_fcmpgt
 3375              	.LVL159:
 3376 11ba 0028     		cmp	r0, #0
 3377 11bc 05D0     		beq	.L107
 337:../Sources/LineDetectionDouble.c **** 				previousLeft = bestLeft;
 3378              		.loc 1 337 0
 3379 11be 664F     		ldr	r7, .L403+60
 3380 11c0 3B1C     		mov	r3, r7
 3381 11c2 83CD     		ldmia	r5!, {r0, r1, r7}
 3382 11c4 83C3     		stmia	r3!, {r0, r1, r7}
 3383 11c6 2D68     		ldr	r5, [r5]
 3384 11c8 1D60     		str	r5, [r3]
 3385              	.L107:
 338:../Sources/LineDetectionDouble.c **** 			if (bestRight.derivativeCertainty > MIN_CERTAINTY)
 3386              		.loc 1 338 0
 3387 11ca 5046     		mov	r0, sl
 3388 11cc 5349     		ldr	r1, .L403
 3389 11ce FFF7FEFF 		bl	__aeabi_fcmpgt
 3390              	.LVL160:
 3391 11d2 0028     		cmp	r0, #0
 3392 11d4 06D0     		beq	.L109
 339:../Sources/LineDetectionDouble.c **** 				previousRight = bestRight;
 3393              		.loc 1 339 0
 3394 11d6 6149     		ldr	r1, .L403+64
 3395 11d8 0498     		ldr	r0, [sp, #16]
 3396 11da 0A1C     		mov	r2, r1
 3397 11dc 70C8     		ldmia	r0!, {r4, r5, r6}
 3398 11de 70C2     		stmia	r2!, {r4, r5, r6}
 3399 11e0 0668     		ldr	r6, [r0]
 3400 11e2 1660     		str	r6, [r2]
 3401              	.L109:
 341:../Sources/LineDetectionDouble.c **** 			if (carState->lineDetectionState != STOPLINE_DETECTED)
 3402              		.loc 1 341 0
 3403 11e4 069C     		ldr	r4, [sp, #24]
 3404 11e6 A778     		ldrb	r7, [r4, #2]
 3405 11e8 022F     		cmp	r7, #2
 3406 11ea 00D1     		bne	.LCB2872
 3407 11ec C1E4     		b	.L111	@long jump
 3408              	.LCB2872:
 343:../Sources/LineDetectionDouble.c **** 				carState->lineDetectionState = LINE_FOUND;
 3409              		.loc 1 343 0
 3410 11ee 0023     		mov	r3, #0
 344:../Sources/LineDetectionDouble.c **** 				carState->detectedType = SINGLE_EDGE;
 3411              		.loc 1 344 0
 3412 11f0 0125     		mov	r5, #1
 343:../Sources/LineDetectionDouble.c **** 				carState->lineDetectionState = LINE_FOUND;
 3413              		.loc 1 343 0
 3414 11f2 A370     		strb	r3, [r4, #2]
 344:../Sources/LineDetectionDouble.c **** 				carState->detectedType = SINGLE_EDGE;
 3415              		.loc 1 344 0
 3416 11f4 2571     		strb	r5, [r4, #4]
 3417 11f6 BCE4     		b	.L111
 3418              	.L338:
 3419 11f8 B946     		mov	r9, r7
 3420 11fa 059E     		ldr	r6, [sp, #20]
 3421 11fc 43E6     		b	.L98
 3422              	.L319:
 3423              	.LBB153:
 299:../Sources/LineDetectionDouble.c **** 			if (detectedDoubleLines.line[k].lineType == LEFT && detectedDoubleLines.line[k].derivativeCertai
 3424              		.loc 1 299 0
 3425 11fe 059B     		ldr	r3, [sp, #20]
 3426 1200 391C     		add	r1, r7, #0
 3427 1202 1868     		ldr	r0, [r3]
 3428 1204 FFF7FEFF 		bl	__aeabi_fcmpge
 3429              	.LVL161:
 3430 1208 0028     		cmp	r0, #0
 3431 120a 00D1     		bne	.LCB2894
 3432 120c 07E6     		b	.L194	@long jump
 3433              	.LCB2894:
  28:../Sources/LineDetectionDouble.c **** void findLine(volatile uint16_t* lineScanImage, volatile uint16_t* lineScanImage1, carState_s* carS
 3434              		.loc 1 28 0
 3435 120e 4646     		mov	r6, r8
 3436 1210 0F36     		add	r6, r6, #15
 301:../Sources/LineDetectionDouble.c **** 				bestLeft = detectedDoubleLines.line[k];
 3437              		.loc 1 301 0
 3438 1212 2A1C     		mov	r2, r5
 3439 1214 83CE     		ldmia	r6!, {r0, r1, r7}
 3440 1216 83C2     		stmia	r2!, {r0, r1, r7}
 3441 1218 3768     		ldr	r7, [r6]
 3442 121a 1760     		str	r7, [r2]
 3443 121c AF68     		ldr	r7, [r5, #8]
 3444 121e FEE5     		b	.L194
 3445              	.L317:
 3446              	.LBE153:
 316:../Sources/LineDetectionDouble.c **** 			else if (bestRight.derivativeCertainty > bestLeft.derivativeCertainty)
 3447              		.loc 1 316 0
 3448 1220 381C     		add	r0, r7, #0
 3449 1222 5146     		mov	r1, sl
 3450 1224 FFF7FEFF 		bl	__aeabi_fcmplt
 3451              	.LVL162:
 3452 1228 0028     		cmp	r0, #0
 3453 122a BED0     		beq	.L103
 318:../Sources/LineDetectionDouble.c **** 				carState->lineCenter = (bestRight.position - trackWidthAverage/2 - 64) - CAMERA_CENTER_OFFSET;
 3454              		.loc 1 318 0
 3455 122c 4948     		ldr	r0, .L403+56
 3456 122e 12A9     		add	r1, sp, #72
 3457 1230 0E78     		ldrb	r6, [r1]
 3458 1232 0268     		ldr	r2, [r0]
 3459 1234 3D3E     		sub	r6, r6, #61
 3460 1236 0699     		ldr	r1, [sp, #24]
 3461 1238 5408     		lsr	r4, r2, #1
 3462 123a 331B     		sub	r3, r6, r4
 319:../Sources/LineDetectionDouble.c **** 				carState->edge = RIGHT_EDGE;
 3463              		.loc 1 319 0
 3464 123c 0226     		mov	r6, #2
 318:../Sources/LineDetectionDouble.c **** 				carState->lineCenter = (bestRight.position - trackWidthAverage/2 - 64) - CAMERA_CENTER_OFFSET;
 3465              		.loc 1 318 0
 3466 123e 8B72     		strb	r3, [r1, #10]
 319:../Sources/LineDetectionDouble.c **** 				carState->edge = RIGHT_EDGE;
 3467              		.loc 1 319 0
 3468 1240 4E71     		strb	r6, [r1, #5]
 3469 1242 B2E7     		b	.L103
 3470              	.L84:
 262:../Sources/LineDetectionDouble.c **** 				if(carState->crossSectionPosition == BEGINNING)
 3471              		.loc 1 262 0
 3472 1244 F779     		ldrb	r7, [r6, #7]
 3473 1246 012F     		cmp	r7, #1
 3474 1248 4ED0     		beq	.L392
 277:../Sources/LineDetectionDouble.c **** 					carState->crossSection = NO;
 3475              		.loc 1 277 0
 3476 124a 0023     		mov	r3, #0
 3477 124c B371     		strb	r3, [r6, #6]
 278:../Sources/LineDetectionDouble.c **** 					carState->crossSectionPosition = NO_CROSS;
 3478              		.loc 1 278 0
 3479 124e F371     		strb	r3, [r6, #7]
 3480 1250 81E6     		b	.L83
 3481              	.LVL163:
 3482              	.L188:
 3483              	.LBB154:
 303:../Sources/LineDetectionDouble.c **** 			else if (detectedDoubleLines.line[k].lineType == RIGHT && detectedDoubleLines.line[k].derivative
 3484              		.loc 1 303 0
 3485 1252 0129     		cmp	r1, #1
 3486 1254 00D0     		beq	.LCB2943
 3487 1256 D0E5     		b	.L189	@long jump
 3488              	.LCB2943:
 3489 1258 3068     		ldr	r0, [r6]
 3490 125a 5146     		mov	r1, sl
 3491 125c FFF7FEFF 		bl	__aeabi_fcmpge
 3492              	.LVL164:
 3493 1260 0028     		cmp	r0, #0
 3494 1262 00D1     		bne	.LCB2949
 3495 1264 C9E5     		b	.L189	@long jump
 3496              	.LCB2949:
 305:../Sources/LineDetectionDouble.c **** 				bestRight = detectedDoubleLines.line[k];
 3497              		.loc 1 305 0
 3498 1266 049B     		ldr	r3, [sp, #16]
 3499 1268 07CC     		ldmia	r4!, {r0, r1, r2}
 3500 126a 07C3     		stmia	r3!, {r0, r1, r2}
 3501 126c 2468     		ldr	r4, [r4]
 3502 126e 1C60     		str	r4, [r3]
 3503 1270 1498     		ldr	r0, [sp, #80]
 3504 1272 8246     		mov	sl, r0
 3505 1274 C1E5     		b	.L189
 3506              	.LVL165:
 3507              	.L391:
 3508              	.LBE154:
 324:../Sources/LineDetectionDouble.c **** 				if(carState->crossSection == YES && carState->crossSectionPosition == MIDDLE)
 3509              		.loc 1 324 0
 3510 1276 0699     		ldr	r1, [sp, #24]
 3511 1278 8B79     		ldrb	r3, [r1, #6]
 3512 127a 012B     		cmp	r3, #1
 3513 127c 99D1     		bne	.L105
 324:../Sources/LineDetectionDouble.c **** 				if(carState->crossSection == YES && carState->crossSectionPosition == MIDDLE)
 3514              		.loc 1 324 0 is_stmt 0
 3515 127e CE79     		ldrb	r6, [r1, #7]
 3516 1280 022E     		cmp	r6, #2
 3517 1282 3CD0     		beq	.L393
 329:../Sources/LineDetectionDouble.c **** 				else if(carState->crossSection == YES && carState->crossSectionPosition == BEGINNING)
 3518              		.loc 1 329 0 is_stmt 1
 3519 1284 012E     		cmp	r6, #1
 3520 1286 94D1     		bne	.L105
 331:../Sources/LineDetectionDouble.c **** 					lineCenterTemp = lineCenterTemp*CROSS_LINE_ERROR_REDUCTION;
 3521              		.loc 1 331 0
 3522 1288 314C     		ldr	r4, .L403+52
 3523 128a 2949     		ldr	r1, .L403+20
 3524 128c 2068     		ldr	r0, [r4]
 3525 128e FFF7FEFF 		bl	__aeabi_fmul
 3526              	.LVL166:
 3527 1292 2060     		str	r0, [r4]
 332:../Sources/LineDetectionDouble.c **** 					carState->lineCenter = (int8_t)(lineCenterTemp);
 3528              		.loc 1 332 0
 3529 1294 FFF7FEFF 		bl	__aeabi_f2iz
 3530              	.LVL167:
 3531 1298 069A     		ldr	r2, [sp, #24]
 3532 129a 9072     		strb	r0, [r2, #10]
 3533 129c 89E7     		b	.L105
 3534              	.L387:
 3535              	.LBB155:
 303:../Sources/LineDetectionDouble.c **** 			else if (detectedDoubleLines.line[k].lineType == RIGHT && detectedDoubleLines.line[k].derivative
 3536              		.loc 1 303 0
 3537 129e 3068     		ldr	r0, [r6]
 3538 12a0 5146     		mov	r1, sl
 3539 12a2 FFF7FEFF 		bl	__aeabi_fcmpge
 3540              	.LVL168:
 3541 12a6 0028     		cmp	r0, #0
 3542 12a8 00D1     		bne	.LCB2992
 3543 12aa B8E5     		b	.L194	@long jump
 3544              	.LCB2992:
  28:../Sources/LineDetectionDouble.c **** void findLine(volatile uint16_t* lineScanImage, volatile uint16_t* lineScanImage1, carState_s* carS
 3545              		.loc 1 28 0
 3546 12ac 0F26     		mov	r6, #15
 3547 12ae B446     		mov	ip, r6
 3548 12b0 C444     		add	ip, ip, r8
 305:../Sources/LineDetectionDouble.c **** 				bestRight = detectedDoubleLines.line[k];
 3549              		.loc 1 305 0
 3550 12b2 049E     		ldr	r6, [sp, #16]
 3551 12b4 6046     		mov	r0, ip
 3552 12b6 0EC8     		ldmia	r0!, {r1, r2, r3}
 3553 12b8 0EC6     		stmia	r6!, {r1, r2, r3}
 3554 12ba 0268     		ldr	r2, [r0]
 3555 12bc 3260     		str	r2, [r6]
 3556 12be 1499     		ldr	r1, [sp, #80]
 3557 12c0 8A46     		mov	sl, r1
 3558 12c2 ACE5     		b	.L194
 3559              	.L112:
 3560              	.LBE155:
 376:../Sources/LineDetectionDouble.c **** 	if (carState->lineDetectionState != STOPLINE_DETECTED && TFC_Ticker[3] >= MAX_LOST_LINE_DURATION)
 3561              		.loc 1 376 0
 3562 12c4 069C     		ldr	r4, [sp, #24]
 3563 12c6 A378     		ldrb	r3, [r4, #2]
 3564 12c8 022B     		cmp	r3, #2
 3565 12ca 01D1     		bne	.LCB3013
 3566 12cc FFF782FB 		bl	.L1	@far jump
 3567              	.LCB3013:
 376:../Sources/LineDetectionDouble.c **** 	if (carState->lineDetectionState != STOPLINE_DETECTED && TFC_Ticker[3] >= MAX_LOST_LINE_DURATION)
 3568              		.loc 1 376 0 is_stmt 0
 3569 12d0 C168     		ldr	r1, [r0, #12]
 3570 12d2 9142     		cmp	r1, r2
 3571 12d4 01D8     		bhi	.LCB3016
 3572 12d6 FFF77DFB 		bl	.L1	@far jump
 3573              	.LCB3016:
 379:../Sources/LineDetectionDouble.c **** 		carState->detectedType = NONE;
 3574              		.loc 1 379 0 is_stmt 1
 3575 12da 0027     		mov	r7, #0
 378:../Sources/LineDetectionDouble.c **** 		carState->lineDetectionState = LINE_LOST;
 3576              		.loc 1 378 0
 3577 12dc 0326     		mov	r6, #3
 3578 12de A670     		strb	r6, [r4, #2]
 379:../Sources/LineDetectionDouble.c **** 		carState->detectedType = NONE;
 3579              		.loc 1 379 0
 3580 12e0 2771     		strb	r7, [r4, #4]
 380:../Sources/LineDetectionDouble.c **** 		carState->edge = NO_EDGE;
 3581              		.loc 1 380 0
 3582 12e2 6771     		strb	r7, [r4, #5]
 3583 12e4 FFF776FB 		bl	.L1	@ far jump
 3584              	.L392:
 264:../Sources/LineDetectionDouble.c **** 					if(carState->edge == edgePreviousValid)
 3585              		.loc 1 264 0
 3586 12e8 1D4A     		ldr	r2, .L403+68
 3587 12ea 7179     		ldrb	r1, [r6, #5]
 3588 12ec 1678     		ldrb	r6, [r2]
 3589 12ee 70B2     		sxtb	r0, r6
 3590 12f0 8142     		cmp	r1, r0
 3591 12f2 08D0     		beq	.L394
 271:../Sources/LineDetectionDouble.c **** 						carState->crossSection = NO;
 3592              		.loc 1 271 0
 3593 12f4 069F     		ldr	r7, [sp, #24]
 3594 12f6 0024     		mov	r4, #0
 3595 12f8 BC71     		strb	r4, [r7, #6]
 272:../Sources/LineDetectionDouble.c **** 						carState->crossSectionPosition = NO_CROSS;						
 3596              		.loc 1 272 0
 3597 12fa FC71     		strb	r4, [r7, #7]
 3598 12fc 2BE6     		b	.L83
 3599              	.L393:
 326:../Sources/LineDetectionDouble.c **** 					carState->crossSection = NO;
 3600              		.loc 1 326 0
 3601 12fe 0020     		mov	r0, #0
 3602 1300 8871     		strb	r0, [r1, #6]
 327:../Sources/LineDetectionDouble.c **** 					carState->crossSectionPosition = NO_CROSS;
 3603              		.loc 1 327 0
 3604 1302 C871     		strb	r0, [r1, #7]
 3605 1304 55E7     		b	.L105
 3606              	.L394:
 266:../Sources/LineDetectionDouble.c **** 						lineCenterTemp = lineCenterTemp*CROSS_LINE_ERROR_REDUCTION;
 3607              		.loc 1 266 0
 3608 1306 124D     		ldr	r5, .L403+52
 3609 1308 0949     		ldr	r1, .L403+20
 3610 130a 2868     		ldr	r0, [r5]
 3611 130c FFF7FEFF 		bl	__aeabi_fmul
 3612              	.LVL169:
 3613 1310 2860     		str	r0, [r5]
 267:../Sources/LineDetectionDouble.c **** 						carState->lineCenter = (int8_t)(lineCenterTemp);
 3614              		.loc 1 267 0
 3615 1312 FFF7FEFF 		bl	__aeabi_f2iz
 3616              	.LVL170:
 3617 1316 069B     		ldr	r3, [sp, #24]
 3618 1318 9872     		strb	r0, [r3, #10]
 3619 131a 1CE6     		b	.L83
 3620              	.L404:
 3621              		.align	2
 3622              	.L403:
 3623 131c CDCC4C3E 		.word	1045220557
 3624 1320 00000000 		.word	TFC_Ticker
 3625 1324 87130000 		.word	4999
 3626 1328 00000000 		.word	cross_section_enable
 3627 132c 00000000 		.word	.LANCHOR7
 3628 1330 3D0A773F 		.word	1064766013
 3629 1334 00000000 		.word	speedR
 3630 1338 00000000 		.word	speedL
 3631 133c 00000000 		.word	newExposure
 3632 1340 00409C45 		.word	1167867904
 3633 1344 00009040 		.word	1083179008
 3634 1348 000090C0 		.word	-1064304640
 3635 134c 00004040 		.word	1077936128
 3636 1350 00000000 		.word	.LANCHOR9
 3637 1354 00000000 		.word	.LANCHOR10
 3638 1358 00000000 		.word	.LANCHOR12
 3639 135c 00000000 		.word	.LANCHOR13
 3640 1360 00000000 		.word	.LANCHOR8
 3641              		.cfi_endproc
 3642              	.LFE0:
 3644 1364 C046C046 		.section	.text.findTransitions,"ax",%progbits
 3645              		.align	2
 3646              		.global	findTransitions
 3647              		.code	16
 3648              		.thumb_func
 3650              	findTransitions:
 3651              	.LFB1:
 388:../Sources/LineDetectionDouble.c **** {
 3652              		.loc 1 388 0
 3653              		.cfi_startproc
 3654              	.LVL171:
 3655 0000 F0B5     		push	{r4, r5, r6, r7, lr}
 3656              	.LCFI3:
 3657              		.cfi_def_cfa_offset 20
 3658              		.cfi_offset 4, -20
 3659              		.cfi_offset 5, -16
 3660              		.cfi_offset 6, -12
 3661              		.cfi_offset 7, -8
 3662              		.cfi_offset 14, -4
 3663 0002 4E46     		mov	r6, r9
 3664 0004 5746     		mov	r7, sl
 3665 0006 4546     		mov	r5, r8
 3666 0008 E0B4     		push	{r5, r6, r7}
 3667              	.LCFI4:
 3668              		.cfi_def_cfa_offset 32
 3669              		.cfi_offset 8, -32
 3670              		.cfi_offset 9, -28
 3671              		.cfi_offset 10, -24
 3672              	.LBB156:
 390:../Sources/LineDetectionDouble.c **** 	for (uint8_t k = 0; k < 128 && detectedTransitions->numberOfTransitions < MAX_NUMBER_OF_TRANSITION
 3673              		.loc 1 390 0
 3674 000a 8026     		mov	r6, #128
 3675 000c 7600     		lsl	r6, r6, #1
 3676 000e 835D     		ldrb	r3, [r0, r6]
 3677 0010 3F2B     		cmp	r3, #63
 3678 0012 4ED8     		bhi	.L412
 395:../Sources/LineDetectionDouble.c **** 			detectedTransitions->transition[detectedTransitions->numberOfTransitions].direction = blackToWhi
 3679              		.loc 1 395 0
 3680 0014 0024     		mov	r4, #0
 400:../Sources/LineDetectionDouble.c **** 		else if (derivative[k] <= -derivativeThreshold)
 3681              		.loc 1 400 0
 3682 0016 5542     		neg	r5, r2
 395:../Sources/LineDetectionDouble.c **** 			detectedTransitions->transition[detectedTransitions->numberOfTransitions].direction = blackToWhi
 3683              		.loc 1 395 0
 3684 0018 A246     		mov	sl, r4
 400:../Sources/LineDetectionDouble.c **** 		else if (derivative[k] <= -derivativeThreshold)
 3685              		.loc 1 400 0
 3686 001a AC46     		mov	ip, r5
 392:../Sources/LineDetectionDouble.c **** 		if (derivative[k] >= derivativeThreshold)
 3687              		.loc 1 392 0
 3688 001c 0025     		mov	r5, #0
 3689 001e 4C5F     		ldrsh	r4, [r1, r5]
 403:../Sources/LineDetectionDouble.c **** 			detectedTransitions->transition[detectedTransitions->numberOfTransitions].direction = whiteToBla
 3690              		.loc 1 403 0
 3691 0020 0127     		mov	r7, #1
 3692 0022 B846     		mov	r8, r7
 392:../Sources/LineDetectionDouble.c **** 		if (derivative[k] >= derivativeThreshold)
 3693              		.loc 1 392 0
 3694 0024 9442     		cmp	r4, r2
 3695 0026 4ADA     		bge	.L429
 400:../Sources/LineDetectionDouble.c **** 		else if (derivative[k] <= -derivativeThreshold)
 3696              		.loc 1 400 0
 3697 0028 6445     		cmp	r4, ip
 3698 002a 0BDC     		bgt	.L417
 402:../Sources/LineDetectionDouble.c **** 			detectedTransitions->transition[detectedTransitions->numberOfTransitions].position = k;
 3699              		.loc 1 402 0
 3700 002c 9D00     		lsl	r5, r3, #2
 3701 002e 5746     		mov	r7, sl
 3702 0030 2F54     		strb	r7, [r5, r0]
 404:../Sources/LineDetectionDouble.c **** 			detectedTransitions->transition[detectedTransitions->numberOfTransitions].derivative = (-derivat
 3703              		.loc 1 404 0
 3704 0032 0F88     		ldrh	r7, [r1]
 403:../Sources/LineDetectionDouble.c **** 			detectedTransitions->transition[detectedTransitions->numberOfTransitions].direction = whiteToBla
 3705              		.loc 1 403 0
 3706 0034 4419     		add	r4, r0, r5
 406:../Sources/LineDetectionDouble.c **** 			detectedTransitions->numberOfTransitions++;
 3707              		.loc 1 406 0
 3708 0036 0133     		add	r3, r3, #1
 403:../Sources/LineDetectionDouble.c **** 			detectedTransitions->transition[detectedTransitions->numberOfTransitions].direction = whiteToBla
 3709              		.loc 1 403 0
 3710 0038 4546     		mov	r5, r8
 3711 003a 6570     		strb	r5, [r4, #1]
 406:../Sources/LineDetectionDouble.c **** 			detectedTransitions->numberOfTransitions++;
 3712              		.loc 1 406 0
 3713 003c DBB2     		uxtb	r3, r3
 404:../Sources/LineDetectionDouble.c **** 			detectedTransitions->transition[detectedTransitions->numberOfTransitions].derivative = (-derivat
 3714              		.loc 1 404 0
 3715 003e 7D42     		neg	r5, r7
 3716 0040 6580     		strh	r5, [r4, #2]
 406:../Sources/LineDetectionDouble.c **** 			detectedTransitions->numberOfTransitions++;
 3717              		.loc 1 406 0
 3718 0042 8355     		strb	r3, [r0, r6]
 3719              	.L417:
 390:../Sources/LineDetectionDouble.c **** 	for (uint8_t k = 0; k < 128 && detectedTransitions->numberOfTransitions < MAX_NUMBER_OF_TRANSITION
 3720              		.loc 1 390 0
 3721 0044 0124     		mov	r4, #1
 3722 0046 0231     		add	r1, r1, #2
 3723              	.LVL172:
 3724 0048 3F2B     		cmp	r3, #63
 3725 004a 24D9     		bls	.L414
 3726 004c 31E0     		b	.L412
 3727              	.LVL173:
 3728              	.L430:
 394:../Sources/LineDetectionDouble.c **** 			detectedTransitions->transition[detectedTransitions->numberOfTransitions].position = k;
 3729              		.loc 1 394 0
 3730 004e 9D00     		lsl	r5, r3, #2
 3731 0050 2C54     		strb	r4, [r5, r0]
 395:../Sources/LineDetectionDouble.c **** 			detectedTransitions->transition[detectedTransitions->numberOfTransitions].direction = blackToWhi
 3732              		.loc 1 395 0
 3733 0052 5746     		mov	r7, sl
 3734 0054 4519     		add	r5, r0, r5
 3735 0056 6F70     		strb	r7, [r5, #1]
 396:../Sources/LineDetectionDouble.c **** 			detectedTransitions->transition[detectedTransitions->numberOfTransitions].derivative = derivativ
 3736              		.loc 1 396 0
 3737 0058 0F88     		ldrh	r7, [r1]
 3738              	.L427:
 406:../Sources/LineDetectionDouble.c **** 			detectedTransitions->numberOfTransitions++;
 3739              		.loc 1 406 0
 3740 005a 0133     		add	r3, r3, #1
 3741 005c DBB2     		uxtb	r3, r3
 404:../Sources/LineDetectionDouble.c **** 			detectedTransitions->transition[detectedTransitions->numberOfTransitions].derivative = (-derivat
 3742              		.loc 1 404 0
 3743 005e 6F80     		strh	r7, [r5, #2]
 406:../Sources/LineDetectionDouble.c **** 			detectedTransitions->numberOfTransitions++;
 3744              		.loc 1 406 0
 3745 0060 8355     		strb	r3, [r0, r6]
 3746              	.L408:
 390:../Sources/LineDetectionDouble.c **** 	for (uint8_t k = 0; k < 128 && detectedTransitions->numberOfTransitions < MAX_NUMBER_OF_TRANSITION
 3747              		.loc 1 390 0
 3748 0062 0134     		add	r4, r4, #1
 3749 0064 E4B2     		uxtb	r4, r4
 3750              	.LVL174:
 3751 0066 802C     		cmp	r4, #128
 3752 0068 23D0     		beq	.L412
 3753 006a 8D1C     		add	r5, r1, #2
 390:../Sources/LineDetectionDouble.c **** 	for (uint8_t k = 0; k < 128 && detectedTransitions->numberOfTransitions < MAX_NUMBER_OF_TRANSITION
 3754              		.loc 1 390 0 is_stmt 0
 3755 006c 3F2B     		cmp	r3, #63
 3756 006e 20D8     		bhi	.L412
 392:../Sources/LineDetectionDouble.c **** 		if (derivative[k] >= derivativeThreshold)
 3757              		.loc 1 392 0 is_stmt 1
 3758 0070 0227     		mov	r7, #2
 3759 0072 C95F     		ldrsh	r1, [r1, r7]
 3760 0074 9142     		cmp	r1, r2
 3761 0076 2DDB     		blt	.L419
 394:../Sources/LineDetectionDouble.c **** 			detectedTransitions->transition[detectedTransitions->numberOfTransitions].position = k;
 3762              		.loc 1 394 0
 3763 0078 9900     		lsl	r1, r3, #2
 3764 007a 0C54     		strb	r4, [r1, r0]
 395:../Sources/LineDetectionDouble.c **** 			detectedTransitions->transition[detectedTransitions->numberOfTransitions].direction = blackToWhi
 3765              		.loc 1 395 0
 3766 007c 5746     		mov	r7, sl
 3767 007e 4118     		add	r1, r0, r1
 3768 0080 4F70     		strb	r7, [r1, #1]
 396:../Sources/LineDetectionDouble.c **** 			detectedTransitions->transition[detectedTransitions->numberOfTransitions].derivative = derivativ
 3769              		.loc 1 396 0
 3770 0082 2F88     		ldrh	r7, [r5]
 3771              	.L428:
 406:../Sources/LineDetectionDouble.c **** 			detectedTransitions->numberOfTransitions++;
 3772              		.loc 1 406 0
 3773 0084 0133     		add	r3, r3, #1
 3774 0086 DBB2     		uxtb	r3, r3
 404:../Sources/LineDetectionDouble.c **** 			detectedTransitions->transition[detectedTransitions->numberOfTransitions].derivative = (-derivat
 3775              		.loc 1 404 0
 3776 0088 4F80     		strh	r7, [r1, #2]
 406:../Sources/LineDetectionDouble.c **** 			detectedTransitions->numberOfTransitions++;
 3777              		.loc 1 406 0
 3778 008a 8355     		strb	r3, [r0, r6]
 3779              	.L420:
 390:../Sources/LineDetectionDouble.c **** 	for (uint8_t k = 0; k < 128 && detectedTransitions->numberOfTransitions < MAX_NUMBER_OF_TRANSITION
 3780              		.loc 1 390 0
 3781 008c 0134     		add	r4, r4, #1
 3782 008e E4B2     		uxtb	r4, r4
 3783 0090 A91C     		add	r1, r5, #2
 3784 0092 3F2B     		cmp	r3, #63
 3785 0094 0DD8     		bhi	.L412
 3786              	.LVL175:
 3787              	.L414:
 392:../Sources/LineDetectionDouble.c **** 		if (derivative[k] >= derivativeThreshold)
 3788              		.loc 1 392 0
 3789 0096 0027     		mov	r7, #0
 3790 0098 CD5F     		ldrsh	r5, [r1, r7]
 3791 009a 9542     		cmp	r5, r2
 3792 009c D7DA     		bge	.L430
 400:../Sources/LineDetectionDouble.c **** 		else if (derivative[k] <= -derivativeThreshold)
 3793              		.loc 1 400 0
 3794 009e 6545     		cmp	r5, ip
 3795 00a0 DFDC     		bgt	.L408
 402:../Sources/LineDetectionDouble.c **** 			detectedTransitions->transition[detectedTransitions->numberOfTransitions].position = k;
 3796              		.loc 1 402 0
 3797 00a2 9F00     		lsl	r7, r3, #2
 3798 00a4 3C54     		strb	r4, [r7, r0]
 403:../Sources/LineDetectionDouble.c **** 			detectedTransitions->transition[detectedTransitions->numberOfTransitions].direction = whiteToBla
 3799              		.loc 1 403 0
 3800 00a6 C519     		add	r5, r0, r7
 3801 00a8 4746     		mov	r7, r8
 3802 00aa 6F70     		strb	r7, [r5, #1]
 404:../Sources/LineDetectionDouble.c **** 			detectedTransitions->transition[detectedTransitions->numberOfTransitions].derivative = (-derivat
 3803              		.loc 1 404 0
 3804 00ac 0F88     		ldrh	r7, [r1]
 3805 00ae 7F42     		neg	r7, r7
 3806 00b0 D3E7     		b	.L427
 3807              	.L412:
 3808              	.LBE156:
 411:../Sources/LineDetectionDouble.c **** }
 3809              		.loc 1 411 0
 3810 00b2 0020     		mov	r0, #0
 3811              	.LVL176:
 3812              		@ sp needed for prologue
 3813 00b4 1CBC     		pop	{r2, r3, r4}
 3814 00b6 9046     		mov	r8, r2
 3815 00b8 9946     		mov	r9, r3
 3816 00ba A246     		mov	sl, r4
 3817 00bc F0BD     		pop	{r4, r5, r6, r7, pc}
 3818              	.LVL177:
 3819              	.L429:
 3820              	.LBB157:
 394:../Sources/LineDetectionDouble.c **** 			detectedTransitions->transition[detectedTransitions->numberOfTransitions].position = k;
 3821              		.loc 1 394 0
 3822 00be 9C00     		lsl	r4, r3, #2
 3823 00c0 5746     		mov	r7, sl
 3824 00c2 2754     		strb	r7, [r4, r0]
 396:../Sources/LineDetectionDouble.c **** 			detectedTransitions->transition[detectedTransitions->numberOfTransitions].derivative = derivativ
 3825              		.loc 1 396 0
 3826 00c4 0D88     		ldrh	r5, [r1]
 398:../Sources/LineDetectionDouble.c **** 			detectedTransitions->numberOfTransitions++;
 3827              		.loc 1 398 0
 3828 00c6 0133     		add	r3, r3, #1
 395:../Sources/LineDetectionDouble.c **** 			detectedTransitions->transition[detectedTransitions->numberOfTransitions].direction = blackToWhi
 3829              		.loc 1 395 0
 3830 00c8 0419     		add	r4, r0, r4
 398:../Sources/LineDetectionDouble.c **** 			detectedTransitions->numberOfTransitions++;
 3831              		.loc 1 398 0
 3832 00ca DBB2     		uxtb	r3, r3
 395:../Sources/LineDetectionDouble.c **** 			detectedTransitions->transition[detectedTransitions->numberOfTransitions].direction = blackToWhi
 3833              		.loc 1 395 0
 3834 00cc 6770     		strb	r7, [r4, #1]
 396:../Sources/LineDetectionDouble.c **** 			detectedTransitions->transition[detectedTransitions->numberOfTransitions].derivative = derivativ
 3835              		.loc 1 396 0
 3836 00ce 6580     		strh	r5, [r4, #2]
 398:../Sources/LineDetectionDouble.c **** 			detectedTransitions->numberOfTransitions++;
 3837              		.loc 1 398 0
 3838 00d0 8355     		strb	r3, [r0, r6]
 3839 00d2 B7E7     		b	.L417
 3840              	.LVL178:
 3841              	.L419:
 400:../Sources/LineDetectionDouble.c **** 		else if (derivative[k] <= -derivativeThreshold)
 3842              		.loc 1 400 0
 3843 00d4 6145     		cmp	r1, ip
 3844 00d6 D9DC     		bgt	.L420
 402:../Sources/LineDetectionDouble.c **** 			detectedTransitions->transition[detectedTransitions->numberOfTransitions].position = k;
 3845              		.loc 1 402 0
 3846 00d8 9F00     		lsl	r7, r3, #2
 3847 00da 3C54     		strb	r4, [r7, r0]
 403:../Sources/LineDetectionDouble.c **** 			detectedTransitions->transition[detectedTransitions->numberOfTransitions].direction = whiteToBla
 3848              		.loc 1 403 0
 3849 00dc C119     		add	r1, r0, r7
 3850 00de 4746     		mov	r7, r8
 3851 00e0 4F70     		strb	r7, [r1, #1]
 404:../Sources/LineDetectionDouble.c **** 			detectedTransitions->transition[detectedTransitions->numberOfTransitions].derivative = (-derivat
 3852              		.loc 1 404 0
 3853 00e2 2F88     		ldrh	r7, [r5]
 3854 00e4 7F42     		neg	r7, r7
 3855 00e6 CDE7     		b	.L428
 3856              	.LBE157:
 3857              		.cfi_endproc
 3858              	.LFE1:
 3860              		.section	.text.findLineDistance,"ax",%progbits
 3861              		.align	2
 3862              		.global	findLineDistance
 3863              		.code	16
 3864              		.thumb_func
 3866              	findLineDistance:
 3867              	.LFB2:
 415:../Sources/LineDetectionDouble.c **** {
 3868              		.loc 1 415 0
 3869              		.cfi_startproc
 3870              	.LVL179:
 3871 0000 70B5     		push	{r4, r5, r6, lr}
 3872              	.LCFI5:
 3873              		.cfi_def_cfa_offset 16
 3874              		.cfi_offset 4, -16
 3875              		.cfi_offset 5, -12
 3876              		.cfi_offset 6, -8
 3877              		.cfi_offset 14, -4
 415:../Sources/LineDetectionDouble.c **** {
 3878              		.loc 1 415 0
 3879 0002 041C     		mov	r4, r0
 3880 0004 782A     		cmp	r2, #120
 3881 0006 27D9     		bls	.L432
 3882 0008 7822     		mov	r2, #120
 3883              	.LVL180:
 3884              	.L442:
 3885              	.LBB158:
 421:../Sources/LineDetectionDouble.c **** 		if (derivative[k] <= -derivativeThreshold)	// Checks only for white to black transitions
 3886              		.loc 1 421 0
 3887 000a 0A20     		mov	r0, #10
 3888 000c 235E     		ldrsh	r3, [r4, r0]
 3889              	.LVL181:
 3890 000e 4942     		neg	r1, r1
 3891              	.LVL182:
 3892 0010 8B42     		cmp	r3, r1
 3893 0012 24DD     		ble	.L437
 414:../Sources/LineDetectionDouble.c **** uint8_t findLineDistance(int16_t* derivative, uint16_t derivativeThreshold, uint8_t maxDistance)
 3894              		.loc 1 414 0
 3895 0014 231C     		mov	r3, r4
 3896 0016 0C33     		add	r3, r3, #12
 3897              	.LBE158:
 419:../Sources/LineDetectionDouble.c **** 	for (uint8_t k = 5; k < maxDistance; k++)
 3898              		.loc 1 419 0
 3899 0018 0520     		mov	r0, #5
 3900 001a D507     		lsl	r5, r2, #31
 3901 001c 16D5     		bpl	.L434
 3902              	.LBB159:
 421:../Sources/LineDetectionDouble.c **** 		if (derivative[k] <= -derivativeThreshold)	// Checks only for white to black transitions
 3903              		.loc 1 421 0
 3904 001e 0026     		mov	r6, #0
 3905 0020 9D5F     		ldrsh	r5, [r3, r6]
 3906 0022 231C     		mov	r3, r4
 419:../Sources/LineDetectionDouble.c **** 	for (uint8_t k = 5; k < maxDistance; k++)
 3907              		.loc 1 419 0
 3908 0024 0620     		mov	r0, #6
 3909              	.LVL183:
 3910 0026 0E33     		add	r3, r3, #14
 421:../Sources/LineDetectionDouble.c **** 		if (derivative[k] <= -derivativeThreshold)	// Checks only for white to black transitions
 3911              		.loc 1 421 0
 3912 0028 8D42     		cmp	r5, r1
 3913 002a 14DD     		ble	.L433
 419:../Sources/LineDetectionDouble.c **** 	for (uint8_t k = 5; k < maxDistance; k++)
 3914              		.loc 1 419 0
 3915 002c 0130     		add	r0, r0, #1
 3916              	.LVL184:
 3917 002e C0B2     		uxtb	r0, r0
 3918              	.LVL185:
 3919 0030 9042     		cmp	r0, r2
 3920 0032 0FD0     		beq	.L436
 3921              	.LVL186:
 3922              	.L435:
 421:../Sources/LineDetectionDouble.c **** 		if (derivative[k] <= -derivativeThreshold)	// Checks only for white to black transitions
 3923              		.loc 1 421 0
 3924 0034 0026     		mov	r6, #0
 3925 0036 9C5F     		ldrsh	r4, [r3, r6]
 3926 0038 9D1C     		add	r5, r3, #2
 3927 003a 8C42     		cmp	r4, r1
 3928 003c 0BDD     		ble	.L433
 3929 003e 0226     		mov	r6, #2
 3930 0040 9C5F     		ldrsh	r4, [r3, r6]
 419:../Sources/LineDetectionDouble.c **** 	for (uint8_t k = 5; k < maxDistance; k++)
 3931              		.loc 1 419 0
 3932 0042 0130     		add	r0, r0, #1
 3933 0044 C0B2     		uxtb	r0, r0
