   1              		.cpu cortex-m0
   2              		.fpu softvfp
   3              		.eabi_attribute 20, 1
   4              		.eabi_attribute 21, 1
   5              		.eabi_attribute 23, 3
   6              		.eabi_attribute 24, 1
   7              		.eabi_attribute 25, 1
   8              		.eabi_attribute 26, 1
   9              		.eabi_attribute 30, 2
  10              		.eabi_attribute 34, 0
  11              		.eabi_attribute 18, 4
  12              		.code	16
  13              		.file	"TFC_Motor.c"
  14              		.text
  15              	.Ltext0:
  16              		.cfi_sections	.debug_frame
  17              		.global	__aeabi_ui2f
  18              		.global	__aeabi_fmul
  19              		.global	__aeabi_f2uiz
  20              		.section	.text.TFC_InitMotorPWM,"ax",%progbits
  21              		.align	2
  22              		.global	TFC_InitMotorPWM
  23              		.code	16
  24              		.thumb_func
  26              	TFC_InitMotorPWM:
  27              	.LFB0:
  28              		.file 1 "../Sources/TFC/TFC_Motor.c"
   1:../Sources/TFC/TFC_Motor.c **** #include "TFC\TFC.h"
   2:../Sources/TFC/TFC_Motor.c **** #include "derivative.h"
   3:../Sources/TFC/TFC_Motor.c **** 
   4:../Sources/TFC/TFC_Motor.c **** 
   5:../Sources/TFC/TFC_Motor.c **** #define FTM0_MOD_VALUE	(int)((float)(PERIPHERAL_BUS_CLOCK)/TFC_MOTOR_SWITCHING_FREQUENCY)
   6:../Sources/TFC/TFC_Motor.c **** 
   7:../Sources/TFC/TFC_Motor.c **** #define FTM0_CLOCK                                   	      (CORE_CLOCK/2)
   8:../Sources/TFC/TFC_Motor.c **** #define FTM0_CLK_PRESCALE                                 	   0  // Prescale Selector value - see c
   9:../Sources/TFC/TFC_Motor.c **** #define FTM0_OVERFLOW_FREQUENCY 5000							  //
  10:../Sources/TFC/TFC_Motor.c **** 
  11:../Sources/TFC/TFC_Motor.c **** static float motorValue[2];
  12:../Sources/TFC/TFC_Motor.c **** 
  13:../Sources/TFC/TFC_Motor.c **** /**********************************************************************************************/
  14:../Sources/TFC/TFC_Motor.c **** 
  15:../Sources/TFC/TFC_Motor.c **** void TFC_InitMotorPWM()
  16:../Sources/TFC/TFC_Motor.c **** {
  29              		.loc 1 16 0
  30              		.cfi_startproc
  31 0000 38B5     		push	{r3, r4, r5, lr}
  32              	.LCFI0:
  33              		.cfi_def_cfa_offset 16
  34              		.cfi_offset 3, -16
  35              		.cfi_offset 4, -12
  36              		.cfi_offset 5, -8
  37              		.cfi_offset 14, -4
  17:../Sources/TFC/TFC_Motor.c **** 	//Clock Setup for the TPM requires a couple steps.
  18:../Sources/TFC/TFC_Motor.c **** 
  19:../Sources/TFC/TFC_Motor.c **** 	
  20:../Sources/TFC/TFC_Motor.c ****     //1st,  set the clock mux
  21:../Sources/TFC/TFC_Motor.c ****     //See Page 124 of f the KL25 Sub-Family Reference Manual, Rev. 3, September 2012
  22:../Sources/TFC/TFC_Motor.c ****     SIM_SOPT2 |= SIM_SOPT2_PLLFLLSEL_MASK;// We Want MCGPLLCLK/2 (See Page 196 of the KL25 Sub-Fami
  38              		.loc 1 22 0
  39 0002 274A     		ldr	r2, .L2
  40 0004 274B     		ldr	r3, .L2+4
  41 0006 8021     		mov	r1, #128
  42 0008 9858     		ldr	r0, [r3, r2]
  43 000a 4C02     		lsl	r4, r1, #9
  44 000c 0443     		orr	r4, r0
  45 000e 9C50     		str	r4, [r3, r2]
  23:../Sources/TFC/TFC_Motor.c ****     SIM_SOPT2 &= ~(SIM_SOPT2_TPMSRC_MASK);
  46              		.loc 1 23 0
  47 0010 9D58     		ldr	r5, [r3, r2]
  48 0012 2548     		ldr	r0, .L2+8
  24:../Sources/TFC/TFC_Motor.c ****     SIM_SOPT2 |= SIM_SOPT2_TPMSRC(1); //We want the MCGPLLCLK/2 (See Page 196 of the KL25 Sub-Famil
  49              		.loc 1 24 0
  50 0014 8021     		mov	r1, #128
  23:../Sources/TFC/TFC_Motor.c ****     SIM_SOPT2 &= ~(SIM_SOPT2_TPMSRC_MASK);
  51              		.loc 1 23 0
  52 0016 2840     		and	r0, r5
  53 0018 9850     		str	r0, [r3, r2]
  54              		.loc 1 24 0
  55 001a 9C58     		ldr	r4, [r3, r2]
  56 001c 4D04     		lsl	r5, r1, #17
  57 001e 2C43     		orr	r4, r5
  58 0020 9C50     		str	r4, [r3, r2]
  25:../Sources/TFC/TFC_Motor.c **** 
  26:../Sources/TFC/TFC_Motor.c **** 
  27:../Sources/TFC/TFC_Motor.c **** 	//Enable the Clock to the FTM0 Module
  28:../Sources/TFC/TFC_Motor.c **** 	//See Page 207 of f the KL25 Sub-Family Reference Manual, Rev. 3, September 2012
  29:../Sources/TFC/TFC_Motor.c **** 	SIM_SCGC6 |= SIM_SCGC6_TPM0_MASK;
  59              		.loc 1 29 0
  60 0022 224A     		ldr	r2, .L2+12
  30:../Sources/TFC/TFC_Motor.c ****     
  31:../Sources/TFC/TFC_Motor.c ****     //The TPM Module has Clock.  Now set up the peripheral
  32:../Sources/TFC/TFC_Motor.c ****     
  33:../Sources/TFC/TFC_Motor.c ****     //Blow away the control registers to ensure that the counter is not running
  34:../Sources/TFC/TFC_Motor.c ****     TPM0_SC = 0;
  61              		.loc 1 34 0
  62 0024 224C     		ldr	r4, .L2+16
  29:../Sources/TFC/TFC_Motor.c **** 	SIM_SCGC6 |= SIM_SCGC6_TPM0_MASK;
  63              		.loc 1 29 0
  64 0026 9858     		ldr	r0, [r3, r2]
  35:../Sources/TFC/TFC_Motor.c ****     TPM0_CONF = 0;
  36:../Sources/TFC/TFC_Motor.c ****     
  37:../Sources/TFC/TFC_Motor.c ****     //Set TPM module to continue in debug mode
  38:../Sources/TFC/TFC_Motor.c ****     TPM0_CONF |= 0x00000060;
  39:../Sources/TFC/TFC_Motor.c ****     
  40:../Sources/TFC/TFC_Motor.c ****     //While the counter is disabled we can setup the prescaler
  41:../Sources/TFC/TFC_Motor.c ****     
  42:../Sources/TFC/TFC_Motor.c ****     TPM0_SC = TPM_SC_PS(FTM0_CLK_PRESCALE);
  43:../Sources/TFC/TFC_Motor.c ****     
  44:../Sources/TFC/TFC_Motor.c ****     //Setup the mod register to get the correct PWM Period
  45:../Sources/TFC/TFC_Motor.c ****     
  46:../Sources/TFC/TFC_Motor.c ****     TPM0_MOD = FTM0_CLOCK/(1<<FTM0_CLK_PRESCALE)/FTM0_OVERFLOW_FREQUENCY;
  47:../Sources/TFC/TFC_Motor.c ****     
  48:../Sources/TFC/TFC_Motor.c ****     //Setup Channels 0,1,2,3
  49:../Sources/TFC/TFC_Motor.c ****     TPM0_C0SC = TPM_CnSC_MSB_MASK | TPM_CnSC_ELSB_MASK;
  50:../Sources/TFC/TFC_Motor.c ****     TPM0_C1SC = TPM_CnSC_MSB_MASK | TPM_CnSC_ELSB_MASK;
  51:../Sources/TFC/TFC_Motor.c ****     TPM0_C2SC = TPM_CnSC_MSB_MASK | TPM_CnSC_ELSB_MASK;
  52:../Sources/TFC/TFC_Motor.c ****     TPM0_C3SC = TPM_CnSC_MSB_MASK | TPM_CnSC_ELSB_MASK;
  53:../Sources/TFC/TFC_Motor.c ****     
  54:../Sources/TFC/TFC_Motor.c ****     
  55:../Sources/TFC/TFC_Motor.c ****     //Enable the Counter
  56:../Sources/TFC/TFC_Motor.c ****     
  57:../Sources/TFC/TFC_Motor.c ****     //Set the Default duty cycle to 50% duty cycle
  58:../Sources/TFC/TFC_Motor.c ****     TFC_SetMotorPWM(0.0,0.0);
  59:../Sources/TFC/TFC_Motor.c ****     
  60:../Sources/TFC/TFC_Motor.c ****     //Enable the TPM Counter
  61:../Sources/TFC/TFC_Motor.c ****     TPM0_SC |= TPM_SC_CMOD(1);
  62:../Sources/TFC/TFC_Motor.c ****     
  63:../Sources/TFC/TFC_Motor.c ****     
  64:../Sources/TFC/TFC_Motor.c ****     //Enable the FTM functions on the the port
  65:../Sources/TFC/TFC_Motor.c ****     PORTC_PCR1 = PORT_PCR_MUX(4);
  66:../Sources/TFC/TFC_Motor.c ****     PORTC_PCR2 = PORT_PCR_MUX(4);     
  67:../Sources/TFC/TFC_Motor.c ****     PORTC_PCR3 = PORT_PCR_MUX(4);  
  68:../Sources/TFC/TFC_Motor.c ****     PORTC_PCR4 = PORT_PCR_MUX(4);
  69:../Sources/TFC/TFC_Motor.c **** }
  65              		.loc 1 69 0
  66              		@ sp needed for prologue
  29:../Sources/TFC/TFC_Motor.c **** 	SIM_SCGC6 |= SIM_SCGC6_TPM0_MASK;
  67              		.loc 1 29 0
  68 0028 0543     		orr	r5, r0
  69 002a 9D50     		str	r5, [r3, r2]
  34:../Sources/TFC/TFC_Motor.c ****     TPM0_SC = 0;
  70              		.loc 1 34 0
  71 002c 0025     		mov	r5, #0
  35:../Sources/TFC/TFC_Motor.c ****     TPM0_CONF = 0;
  72              		.loc 1 35 0
  73 002e 8423     		mov	r3, #132
  34:../Sources/TFC/TFC_Motor.c ****     TPM0_SC = 0;
  74              		.loc 1 34 0
  75 0030 2560     		str	r5, [r4]
  35:../Sources/TFC/TFC_Motor.c ****     TPM0_CONF = 0;
  76              		.loc 1 35 0
  77 0032 E550     		str	r5, [r4, r3]
  38:../Sources/TFC/TFC_Motor.c ****     TPM0_CONF |= 0x00000060;
  78              		.loc 1 38 0
  79 0034 E158     		ldr	r1, [r4, r3]
  80 0036 6022     		mov	r2, #96
  81 0038 0A43     		orr	r2, r1
  46:../Sources/TFC/TFC_Motor.c ****     TPM0_MOD = FTM0_CLOCK/(1<<FTM0_CLK_PRESCALE)/FTM0_OVERFLOW_FREQUENCY;
  82              		.loc 1 46 0
  83 003a 9620     		mov	r0, #150
  38:../Sources/TFC/TFC_Motor.c ****     TPM0_CONF |= 0x00000060;
  84              		.loc 1 38 0
  85 003c E250     		str	r2, [r4, r3]
  46:../Sources/TFC/TFC_Motor.c ****     TPM0_MOD = FTM0_CLOCK/(1<<FTM0_CLK_PRESCALE)/FTM0_OVERFLOW_FREQUENCY;
  86              		.loc 1 46 0
  87 003e 4301     		lsl	r3, r0, #5
  88              	.LBB4:
  89              	.LBB5:
  70:../Sources/TFC/TFC_Motor.c **** 
  71:../Sources/TFC/TFC_Motor.c **** 
  72:../Sources/TFC/TFC_Motor.c **** 
  73:../Sources/TFC/TFC_Motor.c **** void TFC_SetMotorPWM(float MotorA , float MotorB)
  74:../Sources/TFC/TFC_Motor.c **** {
  75:../Sources/TFC/TFC_Motor.c **** 	
  76:../Sources/TFC/TFC_Motor.c **** 	if(MotorA>1.0)
  77:../Sources/TFC/TFC_Motor.c **** 		MotorA = 1.0;
  78:../Sources/TFC/TFC_Motor.c **** 	else if(MotorA<-1.0)
  79:../Sources/TFC/TFC_Motor.c **** 		MotorA = -1.0;
  80:../Sources/TFC/TFC_Motor.c **** 	
  81:../Sources/TFC/TFC_Motor.c **** 	if(MotorB>1.0)
  82:../Sources/TFC/TFC_Motor.c **** 			MotorB = 1.0;
  83:../Sources/TFC/TFC_Motor.c **** 		else if(MotorB<-1.0)
  84:../Sources/TFC/TFC_Motor.c **** 			MotorB = -1.0;
  85:../Sources/TFC/TFC_Motor.c **** 	
  86:../Sources/TFC/TFC_Motor.c **** 	motorValue[0] = MotorA;
  90              		.loc 1 86 0
  91 0040 1C48     		ldr	r0, .L2+20
  92 0042 0022     		mov	r2, #0
  93              	.LBE5:
  94              	.LBE4:
  49:../Sources/TFC/TFC_Motor.c ****     TPM0_C0SC = TPM_CnSC_MSB_MASK | TPM_CnSC_ELSB_MASK;
  95              		.loc 1 49 0
  96 0044 2821     		mov	r1, #40
  42:../Sources/TFC/TFC_Motor.c ****     TPM0_SC = TPM_SC_PS(FTM0_CLK_PRESCALE);
  97              		.loc 1 42 0
  98 0046 2560     		str	r5, [r4]
  46:../Sources/TFC/TFC_Motor.c ****     TPM0_MOD = FTM0_CLOCK/(1<<FTM0_CLK_PRESCALE)/FTM0_OVERFLOW_FREQUENCY;
  99              		.loc 1 46 0
 100 0048 A360     		str	r3, [r4, #8]
  49:../Sources/TFC/TFC_Motor.c ****     TPM0_C0SC = TPM_CnSC_MSB_MASK | TPM_CnSC_ELSB_MASK;
 101              		.loc 1 49 0
 102 004a E160     		str	r1, [r4, #12]
  50:../Sources/TFC/TFC_Motor.c ****     TPM0_C1SC = TPM_CnSC_MSB_MASK | TPM_CnSC_ELSB_MASK;
 103              		.loc 1 50 0
 104 004c 6161     		str	r1, [r4, #20]
  51:../Sources/TFC/TFC_Motor.c ****     TPM0_C2SC = TPM_CnSC_MSB_MASK | TPM_CnSC_ELSB_MASK;
 105              		.loc 1 51 0
 106 004e E161     		str	r1, [r4, #28]
  52:../Sources/TFC/TFC_Motor.c ****     TPM0_C3SC = TPM_CnSC_MSB_MASK | TPM_CnSC_ELSB_MASK;
 107              		.loc 1 52 0
 108 0050 6162     		str	r1, [r4, #36]
 109              	.LVL0:
 110              	.LBB7:
 111              	.LBB6:
 112              		.loc 1 86 0
 113 0052 0260     		str	r2, [r0]
  87:../Sources/TFC/TFC_Motor.c **** 	motorValue[1] = MotorB;
 114              		.loc 1 87 0
 115 0054 4260     		str	r2, [r0, #4]
  88:../Sources/TFC/TFC_Motor.c **** 		
  89:../Sources/TFC/TFC_Motor.c **** 	
  90:../Sources/TFC/TFC_Motor.c **** 	if(MotorA > 0.0f)
  91:../Sources/TFC/TFC_Motor.c **** 	{
  92:../Sources/TFC/TFC_Motor.c **** 		TPM0_C2V = (uint16_t) ((float)TPM0_MOD * (float)MotorA);
  93:../Sources/TFC/TFC_Motor.c **** 		TPM0_C3V = 0;
  94:../Sources/TFC/TFC_Motor.c **** 	}
  95:../Sources/TFC/TFC_Motor.c **** 	else
  96:../Sources/TFC/TFC_Motor.c **** 	{
  97:../Sources/TFC/TFC_Motor.c **** 		TPM0_C2V = 0;
 116              		.loc 1 97 0
 117 0056 2562     		str	r5, [r4, #32]
  98:../Sources/TFC/TFC_Motor.c **** 		TPM0_C3V = (uint16_t) ((float)TPM0_MOD * (float)(-MotorA));
 118              		.loc 1 98 0
 119 0058 A068     		ldr	r0, [r4, #8]
 120 005a FFF7FEFF 		bl	__aeabi_ui2f
 121              	.LVL1:
 122 005e 8023     		mov	r3, #128
 123 0060 1906     		lsl	r1, r3, #24
 124 0062 FFF7FEFF 		bl	__aeabi_fmul
 125              	.LVL2:
 126 0066 FFF7FEFF 		bl	__aeabi_f2uiz
 127              	.LVL3:
 128 006a 81B2     		uxth	r1, r0
 129 006c A162     		str	r1, [r4, #40]
  99:../Sources/TFC/TFC_Motor.c **** 	}
 100:../Sources/TFC/TFC_Motor.c **** 	
 101:../Sources/TFC/TFC_Motor.c **** 	if(MotorB > 0.0f)
 102:../Sources/TFC/TFC_Motor.c **** 	{
 103:../Sources/TFC/TFC_Motor.c **** 		TPM0_C0V = (uint16_t) ((float)TPM0_MOD * (float)MotorB);
 104:../Sources/TFC/TFC_Motor.c **** 		TPM0_C1V = 0;
 105:../Sources/TFC/TFC_Motor.c **** 	}
 106:../Sources/TFC/TFC_Motor.c **** 	else
 107:../Sources/TFC/TFC_Motor.c **** 	{
 108:../Sources/TFC/TFC_Motor.c **** 		TPM0_C0V = 0;
 130              		.loc 1 108 0
 131 006e 2561     		str	r5, [r4, #16]
 109:../Sources/TFC/TFC_Motor.c **** 		TPM0_C1V = (uint16_t) ((float)TPM0_MOD * (float)(-MotorB));
 132              		.loc 1 109 0
 133 0070 A068     		ldr	r0, [r4, #8]
 134 0072 8025     		mov	r5, #128
 135 0074 FFF7FEFF 		bl	__aeabi_ui2f
 136              	.LVL4:
 137 0078 2906     		lsl	r1, r5, #24
 138 007a FFF7FEFF 		bl	__aeabi_fmul
 139              	.LVL5:
 140 007e FFF7FEFF 		bl	__aeabi_f2uiz
 141              	.LVL6:
 142 0082 80B2     		uxth	r0, r0
 143 0084 A061     		str	r0, [r4, #24]
 144              	.LBE6:
 145              	.LBE7:
  61:../Sources/TFC/TFC_Motor.c ****     TPM0_SC |= TPM_SC_CMOD(1);
 146              		.loc 1 61 0
 147 0086 2268     		ldr	r2, [r4]
 148 0088 0823     		mov	r3, #8
 149 008a 1343     		orr	r3, r2
 150 008c 2360     		str	r3, [r4]
  65:../Sources/TFC/TFC_Motor.c ****     PORTC_PCR1 = PORT_PCR_MUX(4);
 151              		.loc 1 65 0
 152 008e 8021     		mov	r1, #128
 153 0090 094C     		ldr	r4, .L2+24
 154 0092 CD00     		lsl	r5, r1, #3
 155 0094 6560     		str	r5, [r4, #4]
  66:../Sources/TFC/TFC_Motor.c ****     PORTC_PCR2 = PORT_PCR_MUX(4);     
 156              		.loc 1 66 0
 157 0096 A560     		str	r5, [r4, #8]
  67:../Sources/TFC/TFC_Motor.c ****     PORTC_PCR3 = PORT_PCR_MUX(4);  
 158              		.loc 1 67 0
 159 0098 E560     		str	r5, [r4, #12]
  68:../Sources/TFC/TFC_Motor.c ****     PORTC_PCR4 = PORT_PCR_MUX(4);
 160              		.loc 1 68 0
 161 009a 2561     		str	r5, [r4, #16]
  69:../Sources/TFC/TFC_Motor.c **** }
 162              		.loc 1 69 0
 163 009c 38BD     		pop	{r3, r4, r5, pc}
 164              	.L3:
 165 009e C046     		.align	2
 166              	.L2:
 167 00a0 04100000 		.word	4100
 168 00a4 00700440 		.word	1074032640
 169 00a8 FFFFFFFC 		.word	-50331649
 170 00ac 3C100000 		.word	4156
 171 00b0 00800340 		.word	1073971200
 172 00b4 00000000 		.word	.LANCHOR0
 173 00b8 00B00440 		.word	1074049024
 174              		.cfi_endproc
 175              	.LFE0:
 177              		.global	__aeabi_fcmpgt
 178              		.global	__aeabi_fcmplt
 179              		.section	.text.TFC_SetMotorPWM,"ax",%progbits
 180              		.align	2
 181              		.global	TFC_SetMotorPWM
 182              		.code	16
 183              		.thumb_func
 185              	TFC_SetMotorPWM:
 186              	.LFB1:
  74:../Sources/TFC/TFC_Motor.c **** {
 187              		.loc 1 74 0
 188              		.cfi_startproc
 189              	.LVL7:
 190 0000 70B5     		push	{r4, r5, r6, lr}
 191              	.LCFI1:
 192              		.cfi_def_cfa_offset 16
 193              		.cfi_offset 4, -16
 194              		.cfi_offset 5, -12
 195              		.cfi_offset 6, -8
 196              		.cfi_offset 14, -4
  74:../Sources/TFC/TFC_Motor.c **** {
 197              		.loc 1 74 0
 198 0002 0D1C     		add	r5, r1, #0
  76:../Sources/TFC/TFC_Motor.c **** 	if(MotorA>1.0)
 199              		.loc 1 76 0
 200 0004 FE21     		mov	r1, #254
 201              	.LVL8:
 202 0006 8905     		lsl	r1, r1, #22
  74:../Sources/TFC/TFC_Motor.c **** {
 203              		.loc 1 74 0
 204 0008 041C     		add	r4, r0, #0
  76:../Sources/TFC/TFC_Motor.c **** 	if(MotorA>1.0)
 205              		.loc 1 76 0
 206 000a FFF7FEFF 		bl	__aeabi_fcmpgt
 207              	.LVL9:
 208 000e 0028     		cmp	r0, #0
 209 0010 5AD0     		beq	.L22
  77:../Sources/TFC/TFC_Motor.c **** 		MotorA = 1.0;
 210              		.loc 1 77 0
 211 0012 FE20     		mov	r0, #254
 212 0014 8405     		lsl	r4, r0, #22
 213              	.LVL10:
 214              	.L5:
  81:../Sources/TFC/TFC_Motor.c **** 	if(MotorB>1.0)
 215              		.loc 1 81 0
 216 0016 FE22     		mov	r2, #254
 217 0018 281C     		add	r0, r5, #0
 218 001a 9105     		lsl	r1, r2, #22
 219 001c FFF7FEFF 		bl	__aeabi_fcmpgt
 220              	.LVL11:
 221 0020 0028     		cmp	r0, #0
 222 0022 49D0     		beq	.L23
  82:../Sources/TFC/TFC_Motor.c **** 			MotorB = 1.0;
 223              		.loc 1 82 0
 224 0024 FE23     		mov	r3, #254
 225 0026 9D05     		lsl	r5, r3, #22
 226              	.LVL12:
 227              	.L6:
  86:../Sources/TFC/TFC_Motor.c **** 	motorValue[0] = MotorA;
 228              		.loc 1 86 0
 229 0028 2B4E     		ldr	r6, .L24
  90:../Sources/TFC/TFC_Motor.c **** 	if(MotorA > 0.0f)
 230              		.loc 1 90 0
 231 002a 201C     		add	r0, r4, #0
  86:../Sources/TFC/TFC_Motor.c **** 	motorValue[0] = MotorA;
 232              		.loc 1 86 0
 233 002c 3460     		str	r4, [r6]
  87:../Sources/TFC/TFC_Motor.c **** 	motorValue[1] = MotorB;
 234              		.loc 1 87 0
 235 002e 7560     		str	r5, [r6, #4]
  90:../Sources/TFC/TFC_Motor.c **** 	if(MotorA > 0.0f)
 236              		.loc 1 90 0
 237 0030 0021     		mov	r1, #0
 238 0032 FFF7FEFF 		bl	__aeabi_fcmpgt
 239              	.LVL13:
  92:../Sources/TFC/TFC_Motor.c **** 		TPM0_C2V = (uint16_t) ((float)TPM0_MOD * (float)MotorA);
 240              		.loc 1 92 0
 241 0036 294E     		ldr	r6, .L24+4
  90:../Sources/TFC/TFC_Motor.c **** 	if(MotorA > 0.0f)
 242              		.loc 1 90 0
 243 0038 0028     		cmp	r0, #0
 244 003a 2ED0     		beq	.L19
  92:../Sources/TFC/TFC_Motor.c **** 		TPM0_C2V = (uint16_t) ((float)TPM0_MOD * (float)MotorA);
 245              		.loc 1 92 0
 246 003c B068     		ldr	r0, [r6, #8]
 247 003e FFF7FEFF 		bl	__aeabi_ui2f
 248              	.LVL14:
 249 0042 211C     		add	r1, r4, #0
 250 0044 FFF7FEFF 		bl	__aeabi_fmul
 251              	.LVL15:
 252 0048 FFF7FEFF 		bl	__aeabi_f2uiz
 253              	.LVL16:
  93:../Sources/TFC/TFC_Motor.c **** 		TPM0_C3V = 0;
 254              		.loc 1 93 0
 255 004c 0021     		mov	r1, #0
  92:../Sources/TFC/TFC_Motor.c **** 		TPM0_C2V = (uint16_t) ((float)TPM0_MOD * (float)MotorA);
 256              		.loc 1 92 0
 257 004e 80B2     		uxth	r0, r0
 258 0050 3062     		str	r0, [r6, #32]
  93:../Sources/TFC/TFC_Motor.c **** 		TPM0_C3V = 0;
 259              		.loc 1 93 0
 260 0052 B162     		str	r1, [r6, #40]
 261              	.LVL17:
 262              	.L9:
 101:../Sources/TFC/TFC_Motor.c **** 	if(MotorB > 0.0f)
 263              		.loc 1 101 0
 264 0054 281C     		add	r0, r5, #0
 265 0056 0021     		mov	r1, #0
 266 0058 FFF7FEFF 		bl	__aeabi_fcmpgt
 267              	.LVL18:
 103:../Sources/TFC/TFC_Motor.c **** 		TPM0_C0V = (uint16_t) ((float)TPM0_MOD * (float)MotorB);
 268              		.loc 1 103 0
 269 005c 1F4E     		ldr	r6, .L24+4
 101:../Sources/TFC/TFC_Motor.c **** 	if(MotorB > 0.0f)
 270              		.loc 1 101 0
 271 005e 0028     		cmp	r0, #0
 272 0060 0CD0     		beq	.L20
 103:../Sources/TFC/TFC_Motor.c **** 		TPM0_C0V = (uint16_t) ((float)TPM0_MOD * (float)MotorB);
 273              		.loc 1 103 0
 274 0062 B068     		ldr	r0, [r6, #8]
 275 0064 FFF7FEFF 		bl	__aeabi_ui2f
 276              	.LVL19:
 277 0068 291C     		add	r1, r5, #0
 278 006a FFF7FEFF 		bl	__aeabi_fmul
 279              	.LVL20:
 280 006e FFF7FEFF 		bl	__aeabi_f2uiz
 281              	.LVL21:
 104:../Sources/TFC/TFC_Motor.c **** 		TPM0_C1V = 0;
 282              		.loc 1 104 0
 283 0072 0021     		mov	r1, #0
 103:../Sources/TFC/TFC_Motor.c **** 		TPM0_C0V = (uint16_t) ((float)TPM0_MOD * (float)MotorB);
 284              		.loc 1 103 0
 285 0074 80B2     		uxth	r0, r0
 286 0076 3061     		str	r0, [r6, #16]
 104:../Sources/TFC/TFC_Motor.c **** 		TPM0_C1V = 0;
 287              		.loc 1 104 0
 288 0078 B161     		str	r1, [r6, #24]
 289              	.LVL22:
 290              	.L4:
 110:../Sources/TFC/TFC_Motor.c **** 	}
 111:../Sources/TFC/TFC_Motor.c **** }
 291              		.loc 1 111 0
 292              		@ sp needed for prologue
 293 007a 70BD     		pop	{r4, r5, r6, pc}
 294              	.LVL23:
 295              	.L20:
 108:../Sources/TFC/TFC_Motor.c **** 		TPM0_C0V = 0;
 296              		.loc 1 108 0
 297 007c 0022     		mov	r2, #0
 298 007e 3261     		str	r2, [r6, #16]
 109:../Sources/TFC/TFC_Motor.c **** 		TPM0_C1V = (uint16_t) ((float)TPM0_MOD * (float)(-MotorB));
 299              		.loc 1 109 0
 300 0080 B068     		ldr	r0, [r6, #8]
 301 0082 FFF7FEFF 		bl	__aeabi_ui2f
 302              	.LVL24:
 303 0086 8023     		mov	r3, #128
 304 0088 1C06     		lsl	r4, r3, #24
 305 008a 2919     		add	r1, r5, r4
 306 008c FFF7FEFF 		bl	__aeabi_fmul
 307              	.LVL25:
 308 0090 FFF7FEFF 		bl	__aeabi_f2uiz
 309              	.LVL26:
 310 0094 85B2     		uxth	r5, r0
 311              	.LVL27:
 312 0096 B561     		str	r5, [r6, #24]
 313 0098 EFE7     		b	.L4
 314              	.LVL28:
 315              	.L19:
  97:../Sources/TFC/TFC_Motor.c **** 		TPM0_C2V = 0;
 316              		.loc 1 97 0
 317 009a 0021     		mov	r1, #0
 318 009c 3162     		str	r1, [r6, #32]
  98:../Sources/TFC/TFC_Motor.c **** 		TPM0_C3V = (uint16_t) ((float)TPM0_MOD * (float)(-MotorA));
 319              		.loc 1 98 0
 320 009e B068     		ldr	r0, [r6, #8]
 321 00a0 FFF7FEFF 		bl	__aeabi_ui2f
 322              	.LVL29:
 323 00a4 8022     		mov	r2, #128
 324 00a6 1306     		lsl	r3, r2, #24
 325 00a8 E118     		add	r1, r4, r3
 326 00aa FFF7FEFF 		bl	__aeabi_fmul
 327              	.LVL30:
 328 00ae FFF7FEFF 		bl	__aeabi_f2uiz
 329              	.LVL31:
 330 00b2 84B2     		uxth	r4, r0
 331              	.LVL32:
 332 00b4 B462     		str	r4, [r6, #40]
 333 00b6 CDE7     		b	.L9
 334              	.LVL33:
 335              	.L23:
  83:../Sources/TFC/TFC_Motor.c **** 		else if(MotorB<-1.0)
 336              		.loc 1 83 0
 337 00b8 281C     		add	r0, r5, #0
 338 00ba 0949     		ldr	r1, .L24+8
 339 00bc FFF7FEFF 		bl	__aeabi_fcmplt
 340              	.LVL34:
 341 00c0 0028     		cmp	r0, #0
 342 00c2 B1D0     		beq	.L6
  84:../Sources/TFC/TFC_Motor.c **** 			MotorB = -1.0;
 343              		.loc 1 84 0
 344 00c4 064D     		ldr	r5, .L24+8
 345              	.LVL35:
 346 00c6 AFE7     		b	.L6
 347              	.LVL36:
 348              	.L22:
  78:../Sources/TFC/TFC_Motor.c **** 	else if(MotorA<-1.0)
 349              		.loc 1 78 0
 350 00c8 201C     		add	r0, r4, #0
 351 00ca 0549     		ldr	r1, .L24+8
 352 00cc FFF7FEFF 		bl	__aeabi_fcmplt
 353              	.LVL37:
 354 00d0 0028     		cmp	r0, #0
 355 00d2 A0D0     		beq	.L5
  79:../Sources/TFC/TFC_Motor.c **** 		MotorA = -1.0;
 356              		.loc 1 79 0
 357 00d4 024C     		ldr	r4, .L24+8
 358              	.LVL38:
 359 00d6 9EE7     		b	.L5
 360              	.L25:
 361              		.align	2
 362              	.L24:
 363 00d8 00000000 		.word	.LANCHOR0
 364 00dc 00800340 		.word	1073971200
 365 00e0 000080BF 		.word	-1082130432
 366              		.cfi_endproc
 367              	.LFE1:
 369              		.section	.text.TFC_GetMotorPWM,"ax",%progbits
 370              		.align	2
 371              		.global	TFC_GetMotorPWM
 372              		.code	16
 373              		.thumb_func
 375              	TFC_GetMotorPWM:
 376              	.LFB2:
 112:../Sources/TFC/TFC_Motor.c **** 
 113:../Sources/TFC/TFC_Motor.c **** float TFC_GetMotorPWM(uint8_t channel)
 114:../Sources/TFC/TFC_Motor.c **** {
 377              		.loc 1 114 0
 378              		.cfi_startproc
 379              	.LVL39:
 115:../Sources/TFC/TFC_Motor.c **** 	return motorValue[channel];
 380              		.loc 1 115 0
 381 0000 014B     		ldr	r3, .L27
 382 0002 8000     		lsl	r0, r0, #2
 383              	.LVL40:
 384 0004 C058     		ldr	r0, [r0, r3]
 116:../Sources/TFC/TFC_Motor.c **** }
 385              		.loc 1 116 0
 386              		@ sp needed for prologue
 387 0006 7047     		bx	lr
 388              	.L28:
 389              		.align	2
 390              	.L27:
 391 0008 00000000 		.word	.LANCHOR0
 392              		.cfi_endproc
 393              	.LFE2:
 395              		.section	.bss.motorValue,"aw",%nobits
 396              		.align	2
 397              		.set	.LANCHOR0,. + 0
 400              	motorValue:
 401 0000 00000000 		.space	8
 401      00000000 
 402              		.text
 403              	.Letext0:
 404              		.file 2 "C:/Freescale/CW MCU v10.6/MCU/ARM_GCC_Support/ewl/EWL_C/include/cstdint"
 405              		.file 3 "C:/Users/bentr_000/Google Drive/GitHub/TFC-Group2-2016/CodeWarrior Code/FRDM-TFC/Project_