   1              		.cpu cortex-m0
   2              		.fpu softvfp
   3              		.eabi_attribute 20, 1
   4              		.eabi_attribute 21, 1
   5              		.eabi_attribute 23, 3
   6              		.eabi_attribute 24, 1
   7              		.eabi_attribute 25, 1
   8              		.eabi_attribute 26, 1
   9              		.eabi_attribute 30, 2
  10              		.eabi_attribute 34, 0
  11              		.eabi_attribute 18, 4
  12              		.code	16
  13              		.file	"ActiveDifferential.c"
  14              		.text
  15              	.Ltext0:
  16              		.cfi_sections	.debug_frame
  17              		.global	__aeabi_fcmpgt
  18              		.global	__aeabi_fadd
  19              		.global	__aeabi_fdiv
  20              		.global	__aeabi_fsub
  21              		.section	.text.getActiveDifferentialModifier,"ax",%progbits
  22              		.align	2
  23              		.global	getActiveDifferentialModifier
  24              		.code	16
  25              		.thumb_func
  27              	getActiveDifferentialModifier:
  28              	.LFB0:
  29              		.file 1 "../Sources/ActiveDifferential.c"
   1:../Sources/ActiveDifferential.c **** /*
   2:../Sources/ActiveDifferential.c ****  * ActiveDifferential.c
   3:../Sources/ActiveDifferential.c ****  *
   4:../Sources/ActiveDifferential.c ****  *  Created on: Feb 21, 2014
   5:../Sources/ActiveDifferential.c ****  *      Author: Matt and Miroslav Dobrev
   6:../Sources/ActiveDifferential.c ****  */
   7:../Sources/ActiveDifferential.c **** 
   8:../Sources/ActiveDifferential.c **** #include "ActiveDifferential.h"
   9:../Sources/ActiveDifferential.c **** #include "Settings.h"
  10:../Sources/ActiveDifferential.c **** #include "ServoMapping.h"
  11:../Sources/ActiveDifferential.c **** 
  12:../Sources/ActiveDifferential.c **** #define WHEELS_HALF_WIDTH	0.0685f		// (13.7/2) cm from centre of wheel to centre of car in meters
  13:../Sources/ActiveDifferential.c **** 
  14:../Sources/ActiveDifferential.c **** float getActiveDifferentialModifier(float servoValue, int8_t channel)
  15:../Sources/ActiveDifferential.c **** {
  30              		.loc 1 15 0
  31              		.cfi_startproc
  32              	.LVL0:
  33 0000 70B5     		push	{r4, r5, r6, lr}
  34              	.LCFI0:
  35              		.cfi_def_cfa_offset 16
  36              		.cfi_offset 4, -16
  37              		.cfi_offset 5, -12
  38              		.cfi_offset 6, -8
  39              		.cfi_offset 14, -4
  40              		.loc 1 15 0
  41 0002 051C     		add	r5, r0, #0
  42 0004 0E1C     		mov	r6, r1
  16:../Sources/ActiveDifferential.c **** #ifdef ACTIVE_MAP_ENABLE
  17:../Sources/ActiveDifferential.c **** 	float radius = getRadius(servoValue);
  43              		.loc 1 17 0
  44 0006 FFF7FEFF 		bl	getRadius
  45              	.LVL1:
  18:../Sources/ActiveDifferential.c **** 	int8_t turnDirection = (servoValue > 0.0f) ? 1 : -1;
  46              		.loc 1 18 0
  47 000a 0021     		mov	r1, #0
  17:../Sources/ActiveDifferential.c **** 	float radius = getRadius(servoValue);
  48              		.loc 1 17 0
  49 000c 041C     		add	r4, r0, #0
  50              	.LVL2:
  51              		.loc 1 18 0
  52 000e 281C     		add	r0, r5, #0
  53              	.LVL3:
  54 0010 FFF7FEFF 		bl	__aeabi_fcmpgt
  55              	.LVL4:
  56 0014 0028     		cmp	r0, #0
  57 0016 0FD0     		beq	.L8
  58 0018 0849     		ldr	r1, .L11
  59              	.L2:
  19:../Sources/ActiveDifferential.c **** 	
  20:../Sources/ActiveDifferential.c **** 	if(channel == 0)
  21:../Sources/ActiveDifferential.c **** 	{
  22:../Sources/ActiveDifferential.c **** 		return (K_ACTIVE_COMP*(radius + turnDirection*WHEELS_HALF_WIDTH)/radius);
  60              		.loc 1 22 0
  61 001a 201C     		add	r0, r4, #0
  20:../Sources/ActiveDifferential.c **** 	if(channel == 0)
  62              		.loc 1 20 0
  63 001c 002E     		cmp	r6, #0
  64 001e 05D0     		beq	.L10
  65              	.LVL5:
  23:../Sources/ActiveDifferential.c **** 	}
  24:../Sources/ActiveDifferential.c **** 	else
  25:../Sources/ActiveDifferential.c **** 	{
  26:../Sources/ActiveDifferential.c **** 		return (K_ACTIVE_COMP*(radius - turnDirection*WHEELS_HALF_WIDTH)/radius);
  66              		.loc 1 26 0
  67 0020 FFF7FEFF 		bl	__aeabi_fsub
  68              	.LVL6:
  69 0024 211C     		add	r1, r4, #0
  70 0026 FFF7FEFF 		bl	__aeabi_fdiv
  71              	.LVL7:
  72              	.L5:
  27:../Sources/ActiveDifferential.c **** 	}
  28:../Sources/ActiveDifferential.c **** #else
  29:../Sources/ActiveDifferential.c **** 	if(channel == 0)
  30:../Sources/ActiveDifferential.c **** 	{
  31:../Sources/ActiveDifferential.c **** 		return (1.0f + (servoValue*K_ACTIVE));
  32:../Sources/ActiveDifferential.c **** 	}
  33:../Sources/ActiveDifferential.c **** 	else
  34:../Sources/ActiveDifferential.c **** 	{
  35:../Sources/ActiveDifferential.c **** 		return (1.0f - (servoValue*K_ACTIVE));
  36:../Sources/ActiveDifferential.c **** 	}
  37:../Sources/ActiveDifferential.c **** #endif
  38:../Sources/ActiveDifferential.c **** }
  73              		.loc 1 38 0
  74              		@ sp needed for prologue
  75              	.LVL8:
  76              	.LVL9:
  77 002a 70BD     		pop	{r4, r5, r6, pc}
  78              	.LVL10:
  79              	.L10:
  22:../Sources/ActiveDifferential.c **** 		return (K_ACTIVE_COMP*(radius + turnDirection*WHEELS_HALF_WIDTH)/radius);
  80              		.loc 1 22 0
  81 002c FFF7FEFF 		bl	__aeabi_fadd
  82              	.LVL11:
  83 0030 211C     		add	r1, r4, #0
  84 0032 FFF7FEFF 		bl	__aeabi_fdiv
  85              	.LVL12:
  86 0036 F8E7     		b	.L5
  87              	.L8:
  18:../Sources/ActiveDifferential.c **** 	int8_t turnDirection = (servoValue > 0.0f) ? 1 : -1;
  88              		.loc 1 18 0
  89 0038 0149     		ldr	r1, .L11+4
  90 003a EEE7     		b	.L2
  91              	.L12:
  92              		.align	2
  93              	.L11:
  94 003c BA498C3D 		.word	1032604090
  95 0040 BA498CBD 		.word	-1114879558
  96              		.cfi_endproc
  97              	.LFE0:
  99              		.text
 100              	.Letext0:
 101              		.file 2 "C:/Freescale/CW MCU v10.6/MCU/ARM_GCC_Support/ewl/EWL_C/include/cstdint"